Microchip MPLAB XC8 Compiler V1.45 ()

Linker command line:

-W-3 --edf=C:\Program Files (x86)\Microchip\xc8\v1.45\dat\en_msgs.txt -cs \
  -h+dist/default/debug\Lora_v7.X.debug.sym \
  --cmf=dist/default/debug\Lora_v7.X.debug.cmf -z -Q18LF46K22 \
  -oC:\Users\Lenovo\AppData\Local\Temp\sdsg.2 \
  -Mdist/default/debug/Lora_v7.X.debug.map -E1 -ver=XC8 -ASTACK=06FEh-0f37h \
  -pstack=STACK -ACODE=00h-0FFFFh -ACONST=00h-0FFFFh \
  -ASMALLCONST=01000h-010FFhx240 -AMEDIUMCONST=01000h-0FFFFh \
  -ACOMRAM=01h-05Fh -AABS1=00h-0F37h -ABIGRAM=01h-0F37h \
  -ARAM=060h-0FFh,0100h-01FFhx14,0F00h-0F37h -ABANK0=060h-0FFh \
  -ABANK1=0100h-01FFh -ABANK2=0200h-02FFh -ABANK3=0300h-03FFh \
  -ABANK4=0400h-04FFh -ABANK5=0500h-05FFh -ABANK6=0600h-06FFh \
  -ABANK7=0700h-07FFh -ABANK8=0800h-08FFh -ABANK9=0900h-09FFh \
  -ABANK10=0A00h-0AFFh -ABANK11=0B00h-0BFFh -ABANK12=0C00h-0CFFh \
  -ABANK13=0D00h-0DFFh -ABANK14=0E00h-0EFFh -ABANK15=0F00h-0F37h \
  -ASFR=0F38h-0F5Fh,0F60h-0FFCh \
  -preset_vec=00h,intcode=08h,intcodelo,powerup,init -pramtop=01000h \
  -psmallconst=SMALLCONST -pmediumconst=MEDIUMCONST -pconst=CONST \
  -AFARRAM=00h-00h -ACONFIG=0300000h-030000Dh -pconfig=CONFIG \
  -AIDLOC=0200000h-0200007h -pidloc=IDLOC -AEEDATA=0F00000h-0F003FFh \
  -peeprom_data=EEDATA \
  -prdata=COMRAM,nvrram=COMRAM,nvbit=COMRAM,rbss=COMRAM,rbit=COMRAM \
  -pfarbss=FARRAM,fardata=FARRAM,nvFARRAM=FARRAM \
  -pintsave_regs=BIGRAM,bigbss=BIGRAM,bigdata=BIGRAM -pbss=RAM \
  -pidata=CODE,irdata=CODE,ibigdata=CODE,ifardata=CODE -prparam=COMRAM \
  C:\Users\Lenovo\AppData\Local\Temp\sdsg.obj \
  dist/default/debug\Lora_v7.X.debug.obj 

Object code version is 3.11

Machine type is 18LF46K22

Call graph: (short form)




                Name                               Link     Load   Length Selector   Space Scale
C:\Users\Lenovo\AppData\Local\Temp\sdsg.obj
                stack                               6FE      6FE      83A      6FE       2
                init                                 7E       7E        8        4       0
                reset_vec                             0        0        6        0       0
                idloc                            200000   200000        8   200000       0
                config                           300000   300000        E   300000       0
dist/default/debug\Lora_v7.X.debug.obj
                intcode                               8        8       76        4       0
                temp                                 48       48        C        1       1
                mediumconst                        FE48     FE48      1B8     7F24       0
                text223                            8DB0     8DB0        2        4       0
                text222                            8D82     8D82        6        4       0
                text221                            8A0C     8A0C       20        4       0
                text220                            8D5C     8D5C        8        4       0
                text219                            8DAE     8DAE        2        4       0
                text218                            8D7C     8D7C        6        4       0
                text217                            89EC     89EC       20        4       0
                text216                            8D54     8D54        8        4       0
                text215                            8DAC     8DAC        2        4       0
                text214                            8D76     8D76        6        4       0
                text213                            89CC     89CC       20        4       0
                text212                            8D42     8D42        A        4       0
                text211                            89AC     89AC       20        4       0
                text210                            4E10     4E10      16C        4       0
                text209                            5D1A     5D1A      100        4       0
                text208                            8A82     8A82       1C        4       0
                text207                            828A     828A       44        4       0
                text206                            7D92     7D92       56        4       0
                text205                            8DAA     8DAA        2        4       0
                text204                            898C     898C       20        4       0
                text203                            8B86     8B86       14        4       0
                text201                            7032     7032       8C        4       0
                text200                            7F34     7F34       52        4       0
                text199                            7AB8     7AB8       60        4       0
                text198                            8596     8596       30        4       0
                text197                            71D2     71D2       8A        4       0
                text196                            7148     7148       8A        4       0
                text195                            8246     8246       44        4       0
                text194                            88CA     88CA       22        4       0
                text193                            47FA     47FA      198        4       0
                text192                            5C18     5C18      102        4       0
                text191                            896C     896C       20        4       0
                text190                            7FD4     7FD4       4A        4       0
                text189                            6F0C     6F0C       96        4       0
                text188                            6E76     6E76       96        4       0
                text187                            87F2     87F2       28        4       0
                text186                            7368     7368       84        4       0
                text185                            7CE4     7CE4       58        4       0
                text184                            5246     5246      15E        4       0
                text183                            8D9C     8D9C        4        4       0
                text182                            8D98     8D98        4        4       0
                text181                            8AB8     8AB8       1A        4       0
                text180                            8566     8566       30        4       0
                text179                            80F0     80F0       46        4       0
                text178                            8D94     8D94        4        4       0
                text177                            8D90     8D90        4        4       0
                text176                            8BBE     8BBE       12        4       0
                text175                            8C68     8C68        E        4       0
                text174                            894C     894C       20        4       0
                text173                            77FE     77FE       68        4       0
                text172                            61F6     61F6       F0        4       0
                text171                            8C82     8C82        C        4       0
                text170                            87CA     87CA       28        4       0
                text169                            5E1A     5E1A       FE        4       0
                text168                            8202     8202       44        4       0
                text167                            4630     4630      1CA        4       0
                text166                            8D38     8D38        A        4       0
                text165                            7EE2     7EE2       52        4       0
                text164                            5F18     5F18       FA        4       0
                text163                            4462     4462      1CE        4       0
                text162                            6DD2     6DD2       A4        4       0
                text161                            658E     658E       DE        4       0
                text160                            8C20     8C20       10        4       0
                text159                            79F6     79F6       62        4       0
                text158                            350C     350C      2A4        4       0
                text157                            50E2     50E2      164        4       0
                text156                            28FE     28FE      34A        4       0
                text155                            840A     840A       36        4       0
                text154                            7994     7994       62        4       0
                text153                            54F2     54F2      14C        4       0
                text152                            21F0     21F0      3AA        4       0
                text151                            7932     7932       62        4       0
                text150                            81BE     81BE       44        4       0
                text149                            7BD4     7BD4       5C        4       0
                text148                            88A8     88A8       22        4       0
                text147                            4992     4992      190        4       0
                text146                            7796     7796       68        4       0
                text145                            772C     772C       6A        4       0
                text144                            6106     6106       F0        4       0
                text143                            14DE     14DE      500        4       0
                text142                            3A20     3A20      238        4       0
                text141                            8D2E     8D2E        A        4       0
                text140                            70BE     70BE       8A        4       0
                text139                            8536     8536       30        4       0
                text138                            8D24     8D24        A        4       0
                text137                            8D1A     8D1A        A        4       0
                text136                            8D10     8D10        A        4       0
                text135                            6C86     6C86       A8        4       0
                text134                            8D06     8D06        A        4       0
                text133                            8CFC     8CFC        A        4       0
                text132                            8CF2     8CF2        A        4       0
                text131                            7E90     7E90       52        4       0
                text130                            58AA     58AA      12A        4       0
                text129                            76C0     76C0       6C        4       0
                text128                            8A9E     8A9E       1A        4       0
                text127                            6D2E     6D2E       A4        4       0
                text126                            8B72     8B72       14        4       0
                text125                            8728     8728       2A        4       0
                text124                            3C58     3C58      230        4       0
                text123                            892C     892C       20        4       0
                text122                            8D70     8D70        6        4       0
                text121                            8BAC     8BAC       12        4       0
                text120                            8B5E     8B5E       14        4       0
                text119                            8DA8     8DA8        2        4       0
                text118                            74EC     74EC       7E        4       0
                text117                            8D6A     8D6A        6        4       0
                text116                            86FE     86FE       2A        4       0
                text115                            8350     8350       40        4       0
                text114                             D2C      D2C      7B2        4       0
                text113                            577C     577C      12E        4       0
                text112                            7B76     7B76       5E        4       0
                text111                            73EC     73EC       82        4       0
                text110                            6BDA     6BDA       AC        4       0
                text109                            72E2     72E2       86        4       0
                text108                            7C8A     7C8A       5A        4       0
                text107                            68EA     68EA       CA        4       0
                text106                            6012     6012       F4        4       0
                text105                            725C     725C       86        4       0
                text104                            428A     428A      1D8        4       0
                text103                            64B0     64B0       DE        4       0
                text102                            8D64     8D64        6        4       0
                text101                            19DE     19DE      462        4       0
                text100                            1E40     1E40      3B0        4       0
                text99                             7A58     7A58       60        4       0
                text98                             6818     6818       D2        4       0
                text97                             8CE8     8CE8        A        4       0
                text96                             7E3C     7E3C       54        4       0
                text95                             4F7C     4F7C      166        4       0
                text94                             7654     7654       6C        4       0
                text93                             8A66     8A66       1C        4       0
                text92                             8CDE     8CDE        A        4       0
                text91                             8CD4     8CD4        A        4       0
                text90                             7B18     7B18       5E        4       0
                text89                             890C     890C       20        4       0
                text88                             8B1A     8B1A       18        4       0
                text87                             86D4     86D4       2A        4       0
                text86                             3244     3244      2C8        4       0
                text85                             84A4     84A4       32        4       0
                text84                             8840     8840       24        4       0
                text83                             7C30     7C30       5A        4       0
                text82                             53A4     53A4      14E        4       0
                text81                             817A     817A       44        4       0
                text80                             8136     8136       44        4       0
                text79                             80AA     80AA       46        4       0
                text78                             78CC     78CC       66        4       0
                text77                             37B0     37B0      270        4       0
                text76                             8B48     8B48       16        4       0
                text75                             8B02     8B02       18        4       0
                text74                             3E88     3E88      214        4       0
                text73                             87A2     87A2       28        4       0
                text72                             82CE     82CE       42        4       0
                text71                             877A     877A       28        4       0
                text70                             2F4E     2F4E      2F6        4       0
                text69                             8DA6     8DA6        2        4       0
                text68                             8506     8506       30        4       0
                text67                             746E     746E       7E        4       0
                text66                             4B22     4B22      182        4       0
                text65                             409C     409C      1EE        4       0
                text64                             8A4A     8A4A       1C        4       0
                text63                             75E2     75E2       72        4       0
                text62                               86       86      CA6        4       0
                text61                             259A     259A      364        4       0
                text60                             6B26     6B26       B4        4       0
                text59                             7866     7866       66        4       0
                text58                             63CC     63CC       E4        4       0
                text57                             59D4     59D4      126        4       0
                text56                             8472     8472       32        4       0
                text55                             6FA2     6FA2       90        4       0
                text54                             8310     8310       40        4       0
                text53                             8650     8650       2E        4       0
                text52                             7F86     7F86       4E        4       0
                text51                             7D3C     7D3C       56        4       0
                text50                             8886     8886       22        4       0
                text49                             8440     8440       32        4       0
                text48                             8752     8752       28        4       0
                text47                             8B9A     8B9A       12        4       0
                text46                             756A     756A       78        4       0
                text45                             83CE     83CE       3C        4       0
                text44                             8064     8064       46        4       0
                text43                             666C     666C       D8        4       0
                text42                             6A6E     6A6E       B8        4       0
                text41                             4CA4     4CA4      16C        4       0
                text40                             5AFA     5AFA      11E        4       0
                text39                             881A     881A       26        4       0
                text38                             563E     563E      13E        4       0
                text37                             2C48     2C48      306        4       0
                text36                             62E6     62E6       E6        4       0
                text35                             8390     8390       3E        4       0
                text34                             8622     8622       2E        4       0
                text33                             8AEA     8AEA       18        4       0
                text32                             85F4     85F4       2E        4       0
                text31                             8B32     8B32       16        4       0
                text30                             8C10     8C10       10        4       0
                text29                             8CCA     8CCA        A        4       0
                text28                             8CC0     8CC0        A        4       0
                text27                             8CB6     8CB6        A        4       0
                text26                             801E     801E       46        4       0
                text25                             8CAC     8CAC        A        4       0
                text24                             8CA2     8CA2        A        4       0
                text23                             86AA     86AA       2A        4       0
                text22                             8D8C     8D8C        4        4       0
                text21                             8C00     8C00       10        4       0
                text20                             8BF0     8BF0       10        4       0
                text19                             8C98     8C98        A        4       0
                text18                             8BE0     8BE0       10        4       0
                text17                             8DA4     8DA4        2        4       0
                text16                             8DA2     8DA2        2        4       0
                text15                             8DA0     8DA0        2        4       0
                text14                             8D4C     8D4C        8        4       0
                text13                             8C8E     8C8E        A        4       0
                text12                             8BD0     8BD0       10        4       0
                text11                             8864     8864       22        4       0
                text10                             8C5A     8C5A        E        4       0
                text9                              7DE8     7DE8       54        4       0
                text8                              8C4C     8C4C        E        4       0
                text7                              867E     867E       2C        4       0
                text6                              8A2C     8A2C       1E        4       0
                text5                              85C6     85C6       2E        4       0
                text4                              8C76     8C76        C        4       0
                text3                              8C3E     8C3E        E        4       0
                text2                              8C30     8C30        E        4       0
                text1                              84D6     84D6       30        4       0
                text0                              6744     6744       D4        4       0
                cstackCOMRAM                          1        1       3B        1       1
                cstackBANK0                          60       60       9B       60       1
                cstackBANK1                         16A      16A       69      100       1
                bssBIGRAM                           4E0      4E0      21E      4E0       1
                bssBANK4                            400      400       E0      400       1
                dataBANK3                           3A0      3A0       20      300       1
                bssBANK3                            300      300       A0      300       1
                bssBANK2                            200      200       F5      200       1
                dataBANK1                           1D3      1D3       18      100       1
                bssBANK1                            100      100       6A      100       1
                bssBANK0                             FB       FB        1       60       1
                dataCOMRAM                           54       54        4        1       1
                bssCOMRAM                            3C       3C        C        1       1
                cinit                              69B4     69B4       BA        4       0
                nvBANK2                             2F5      2F5        2      200       1
                nvBANK1                             1EB      1EB       10      100       1
                idataBANK3                         88EC     88EC       20        4       0
                idataBANK1                         8AD2     8AD2       18        4       0
                idataCOMRAM                        8D88     8D88        4        4       0

TOTAL           Name                               Link     Load   Length     Space
        CLASS   STACK          
                stack                               6FE      6FE      83A         2

        CLASS   CODE           
                intcode                               8        8       76         0
                init                                 7E       7E        8         0
                reset_vec                             0        0        6         0
                text223                            8DB0     8DB0        2         0
                text222                            8D82     8D82        6         0
                text221                            8A0C     8A0C       20         0
                text220                            8D5C     8D5C        8         0
                text219                            8DAE     8DAE        2         0
                text218                            8D7C     8D7C        6         0
                text217                            89EC     89EC       20         0
                text216                            8D54     8D54        8         0
                text215                            8DAC     8DAC        2         0
                text214                            8D76     8D76        6         0
                text213                            89CC     89CC       20         0
                text212                            8D42     8D42        A         0
                text211                            89AC     89AC       20         0
                text210                            4E10     4E10      16C         0
                text209                            5D1A     5D1A      100         0
                text208                            8A82     8A82       1C         0
                text207                            828A     828A       44         0
                text206                            7D92     7D92       56         0
                text205                            8DAA     8DAA        2         0
                text204                            898C     898C       20         0
                text203                            8B86     8B86       14         0
                text201                            7032     7032       8C         0
                text200                            7F34     7F34       52         0
                text199                            7AB8     7AB8       60         0
                text198                            8596     8596       30         0
                text197                            71D2     71D2       8A         0
                text196                            7148     7148       8A         0
                text195                            8246     8246       44         0
                text194                            88CA     88CA       22         0
                text193                            47FA     47FA      198         0
                text192                            5C18     5C18      102         0
                text191                            896C     896C       20         0
                text190                            7FD4     7FD4       4A         0
                text189                            6F0C     6F0C       96         0
                text188                            6E76     6E76       96         0
                text187                            87F2     87F2       28         0
                text186                            7368     7368       84         0
                text185                            7CE4     7CE4       58         0
                text184                            5246     5246      15E         0
                text183                            8D9C     8D9C        4         0
                text182                            8D98     8D98        4         0
                text181                            8AB8     8AB8       1A         0
                text180                            8566     8566       30         0
                text179                            80F0     80F0       46         0
                text178                            8D94     8D94        4         0
                text177                            8D90     8D90        4         0
                text176                            8BBE     8BBE       12         0
                text175                            8C68     8C68        E         0
                text174                            894C     894C       20         0
                text173                            77FE     77FE       68         0
                text172                            61F6     61F6       F0         0
                text171                            8C82     8C82        C         0
                text170                            87CA     87CA       28         0
                text169                            5E1A     5E1A       FE         0
                text168                            8202     8202       44         0
                text167                            4630     4630      1CA         0
                text166                            8D38     8D38        A         0
                text165                            7EE2     7EE2       52         0
                text164                            5F18     5F18       FA         0
                text163                            4462     4462      1CE         0
                text162                            6DD2     6DD2       A4         0
                text161                            658E     658E       DE         0
                text160                            8C20     8C20       10         0
                text159                            79F6     79F6       62         0
                text158                            350C     350C      2A4         0
                text157                            50E2     50E2      164         0
                text156                            28FE     28FE      34A         0
                text155                            840A     840A       36         0
                text154                            7994     7994       62         0
                text153                            54F2     54F2      14C         0
                text152                            21F0     21F0      3AA         0
                text151                            7932     7932       62         0
                text150                            81BE     81BE       44         0
                text149                            7BD4     7BD4       5C         0
                text148                            88A8     88A8       22         0
                text147                            4992     4992      190         0
                text146                            7796     7796       68         0
                text145                            772C     772C       6A         0
                text144                            6106     6106       F0         0
                text143                            14DE     14DE      500         0
                text142                            3A20     3A20      238         0
                text141                            8D2E     8D2E        A         0
                text140                            70BE     70BE       8A         0
                text139                            8536     8536       30         0
                text138                            8D24     8D24        A         0
                text137                            8D1A     8D1A        A         0
                text136                            8D10     8D10        A         0
                text135                            6C86     6C86       A8         0
                text134                            8D06     8D06        A         0
                text133                            8CFC     8CFC        A         0
                text132                            8CF2     8CF2        A         0
                text131                            7E90     7E90       52         0
                text130                            58AA     58AA      12A         0
                text129                            76C0     76C0       6C         0
                text128                            8A9E     8A9E       1A         0
                text127                            6D2E     6D2E       A4         0
                text126                            8B72     8B72       14         0
                text125                            8728     8728       2A         0
                text124                            3C58     3C58      230         0
                text123                            892C     892C       20         0
                text122                            8D70     8D70        6         0
                text121                            8BAC     8BAC       12         0
                text120                            8B5E     8B5E       14         0
                text119                            8DA8     8DA8        2         0
                text118                            74EC     74EC       7E         0
                text117                            8D6A     8D6A        6         0
                text116                            86FE     86FE       2A         0
                text115                            8350     8350       40         0
                text114                             D2C      D2C      7B2         0
                text113                            577C     577C      12E         0
                text112                            7B76     7B76       5E         0
                text111                            73EC     73EC       82         0
                text110                            6BDA     6BDA       AC         0
                text109                            72E2     72E2       86         0
                text108                            7C8A     7C8A       5A         0
                text107                            68EA     68EA       CA         0
                text106                            6012     6012       F4         0
                text105                            725C     725C       86         0
                text104                            428A     428A      1D8         0
                text103                            64B0     64B0       DE         0
                text102                            8D64     8D64        6         0
                text101                            19DE     19DE      462         0
                text100                            1E40     1E40      3B0         0
                text99                             7A58     7A58       60         0
                text98                             6818     6818       D2         0
                text97                             8CE8     8CE8        A         0
                text96                             7E3C     7E3C       54         0
                text95                             4F7C     4F7C      166         0
                text94                             7654     7654       6C         0
                text93                             8A66     8A66       1C         0
                text92                             8CDE     8CDE        A         0
                text91                             8CD4     8CD4        A         0
                text90                             7B18     7B18       5E         0
                text89                             890C     890C       20         0
                text88                             8B1A     8B1A       18         0
                text87                             86D4     86D4       2A         0
                text86                             3244     3244      2C8         0
                text85                             84A4     84A4       32         0
                text84                             8840     8840       24         0
                text83                             7C30     7C30       5A         0
                text82                             53A4     53A4      14E         0
                text81                             817A     817A       44         0
                text80                             8136     8136       44         0
                text79                             80AA     80AA       46         0
                text78                             78CC     78CC       66         0
                text77                             37B0     37B0      270         0
                text76                             8B48     8B48       16         0
                text75                             8B02     8B02       18         0
                text74                             3E88     3E88      214         0
                text73                             87A2     87A2       28         0
                text72                             82CE     82CE       42         0
                text71                             877A     877A       28         0
                text70                             2F4E     2F4E      2F6         0
                text69                             8DA6     8DA6        2         0
                text68                             8506     8506       30         0
                text67                             746E     746E       7E         0
                text66                             4B22     4B22      182         0
                text65                             409C     409C      1EE         0
                text64                             8A4A     8A4A       1C         0
                text63                             75E2     75E2       72         0
                text62                               86       86      CA6         0
                text61                             259A     259A      364         0
                text60                             6B26     6B26       B4         0
                text59                             7866     7866       66         0
                text58                             63CC     63CC       E4         0
                text57                             59D4     59D4      126         0
                text56                             8472     8472       32         0
                text55                             6FA2     6FA2       90         0
                text54                             8310     8310       40         0
                text53                             8650     8650       2E         0
                text52                             7F86     7F86       4E         0
                text51                             7D3C     7D3C       56         0
                text50                             8886     8886       22         0
                text49                             8440     8440       32         0
                text48                             8752     8752       28         0
                text47                             8B9A     8B9A       12         0
                text46                             756A     756A       78         0
                text45                             83CE     83CE       3C         0
                text44                             8064     8064       46         0
                text43                             666C     666C       D8         0
                text42                             6A6E     6A6E       B8         0
                text41                             4CA4     4CA4      16C         0
                text40                             5AFA     5AFA      11E         0
                text39                             881A     881A       26         0
                text38                             563E     563E      13E         0
                text37                             2C48     2C48      306         0
                text36                             62E6     62E6       E6         0
                text35                             8390     8390       3E         0
                text34                             8622     8622       2E         0
                text33                             8AEA     8AEA       18         0
                text32                             85F4     85F4       2E         0
                text31                             8B32     8B32       16         0
                text30                             8C10     8C10       10         0
                text29                             8CCA     8CCA        A         0
                text28                             8CC0     8CC0        A         0
                text27                             8CB6     8CB6        A         0
                text26                             801E     801E       46         0
                text25                             8CAC     8CAC        A         0
                text24                             8CA2     8CA2        A         0
                text23                             86AA     86AA       2A         0
                text22                             8D8C     8D8C        4         0
                text21                             8C00     8C00       10         0
                text20                             8BF0     8BF0       10         0
                text19                             8C98     8C98        A         0
                text18                             8BE0     8BE0       10         0
                text17                             8DA4     8DA4        2         0
                text16                             8DA2     8DA2        2         0
                text15                             8DA0     8DA0        2         0
                text14                             8D4C     8D4C        8         0
                text13                             8C8E     8C8E        A         0
                text12                             8BD0     8BD0       10         0
                text11                             8864     8864       22         0
                text10                             8C5A     8C5A        E         0
                text9                              7DE8     7DE8       54         0
                text8                              8C4C     8C4C        E         0
                text7                              867E     867E       2C         0
                text6                              8A2C     8A2C       1E         0
                text5                              85C6     85C6       2E         0
                text4                              8C76     8C76        C         0
                text3                              8C3E     8C3E        E         0
                text2                              8C30     8C30        E         0
                text1                              84D6     84D6       30         0
                text0                              6744     6744       D4         0
                cinit                              69B4     69B4       BA         0
                idataBANK3                         88EC     88EC       20         0
                idataBANK1                         8AD2     8AD2       18         0
                idataCOMRAM                        8D88     8D88        4         0

        CLASS   CONST          

        CLASS   SMALLCONST     

        CLASS   MEDIUMCONST    
                mediumconst                        FE48     FE48      1B8         0

        CLASS   COMRAM         
                temp                                 48       48        C         1
                cstackCOMRAM                          1        1       3B         1
                dataCOMRAM                           54       54        4         1
                bssCOMRAM                            3C       3C        C         1

        CLASS   ABS1           

        CLASS   BIGRAM         
                bssBIGRAM                           4E0      4E0      21E         1

        CLASS   RAM            

        CLASS   BANK0          
                cstackBANK0                          60       60       9B         1
                bssBANK0                             FB       FB        1         1

        CLASS   BANK1          
                cstackBANK1                         16A      16A       69         1
                dataBANK1                           1D3      1D3       18         1
                bssBANK1                            100      100       6A         1
                nvBANK1                             1EB      1EB       10         1

        CLASS   BANK2          
                bssBANK2                            200      200       F5         1
                nvBANK2                             2F5      2F5        2         1

        CLASS   BANK3          
                dataBANK3                           3A0      3A0       20         1
                bssBANK3                            300      300       A0         1

        CLASS   BANK4          
                bssBANK4                            400      400       E0         1

        CLASS   BANK5          

        CLASS   BANK6          

        CLASS   BANK7          

        CLASS   BANK8          

        CLASS   BANK9          

        CLASS   BANK10         

        CLASS   BANK11         

        CLASS   BANK12         

        CLASS   BANK13         

        CLASS   BANK14         

        CLASS   BANK15         

        CLASS   SFR            

        CLASS   FARRAM         

        CLASS   CONFIG         
                config                           300000   300000        E         0

        CLASS   IDLOC          
                idloc                            200000   200000        8         0

        CLASS   EEDATA         



SEGMENTS        Name                           Load    Length   Top    Selector   Space  Class

                reset_vec                      000000  000006  000006         0       0  CODE    
                cstackCOMRAM                   000001  000057  000058         1       1  COMRAM  
                intcode                        000008  008DAA  008DB2         4       0  CODE    
                cstackBANK0                    000060  00009C  0000FC        60       1  BANK0   
                bssBANK1                       000100  0000FB  0001FB       100       1  BANK1   
                bssBANK2                       000200  0000F7  0002F7       200       1  BANK2   
                bssBANK3                       000300  0000C0  0003C0       300       1  BANK3   
                bssBANK4                       000400  0000E0  0004E0       400       1  BANK4   
                bssBIGRAM                      0004E0  00021E  0006FE       4E0       1  BIGRAM  
                stack                          0006FE  00083A  000F38       6FE       2  STACK   
                mediumconst                    00FE48  0001B8  010000      7F24       0  MEDIUMCO
                idloc                          200000  000008  200008    200000       0  IDLOC   
                config                         300000  00000E  30000E    300000       0  CONFIG  


UNUSED ADDRESS RANGES

        Name                Unused          Largest block    Delta
        BANK0            0000FC-0000FF                4
        BANK1            0001FB-0001FF                5
        BANK10           000A00-000AFF              100
        BANK11           000B00-000BFF              100
        BANK12           000C00-000CFF              100
        BANK13           000D00-000DFF              100
        BANK14           000E00-000EFF              100
        BANK15           000F00-000F37               38
        BANK2            0002F7-0002FF                9
        BANK3            0003C0-0003FF               40
        BANK6            0006FE-0006FF                2
        BANK7            000700-0007FF              100
        BANK8            000800-0008FF              100
        BANK9            000900-0009FF              100
        BIGRAM           000058-00005F                8
                         0000FC-0000FF                4
                         0001FB-0001FF                5
                         0002F7-0002FF                9
                         0003C0-0003FF               40
                         0006FE-000F37              83A
        CODE             000006-000007                2
                         008DB2-00FE47             7096
        COMRAM           000058-00005F                8
        CONST            000006-000007                2
                         008DB2-00FE47             7096
        EEDATA           F00000-F003FF              400
        MEDIUMCONST      008DB2-00FE47             7096
        RAM              0000FC-0000FF                4
                         0001FB-0001FF                5
                         0002F7-0002FF                9
                         0003C0-0003FF               40
                         0006FE-000F37              100
        SFR              000F38-000FFC               28
        SMALLCONST       008DB2-00FE47              100

                                  Symbol Table

?_ComputeMic                                              cstackBANK0  0000C7
?_ExecuteDevStatus                                        cstackBANK0  000060
?_ExecuteDutyCycle                                        cstackBANK0  000060
?_ExecuteLinkAdr                                          cstackBANK0  00006F
?_ExecuteLinkCheck                                        cstackBANK0  000060
?_ExecuteNewChannel                                       cstackBANK0  0000A6
?_ExecuteRxParamSetupReq                                  cstackBANK0  0000A6
?_ExecuteRxTimingSetup                                    cstackBANK0  000067
?_ExtractMic                                              cstackBANK0  00006B
?_GetRx1Freq                                              cstackBANK0  000060
?_MacExecuteCommands                                      cstackBANK0  0000B0
?_RADIO_ReadRandom                                        cstackBANK0  00006C
?_RADIO_ReceiveStart                                      cstackBANK0  0000B1
?_RADIO_Transmit                                          cstackBANK0  0000B1
?_Random                                                  cstackBANK0  0000AD
?_SwTimerReadValue                                        cstackBANK0  000091
?_SwTimersInterrupt                                       cstackBANK0  000080
?_TMR1_ReadTimer                                          cstackBANK0  000060
?_TMR_GetDeltaTime                                        cstackBANK0  000068
?_TMR_SwapTimer                                           cstackBANK0  000068
?___awdiv                                                 cstackBANK0  000060
?___lldiv                                                 cstackBANK0  000060
?___llmod                                                 cstackBANK0  000060
?___lmul                                                  cstackBANK0  00009A
?___lwmod                                                 cstackBANK0  0000A8
?___wmul                                                  cstackBANK0  000060
?_printf                                                  cstackBANK0  000062
?_rand                                                    cstackBANK0  0000A6
?i2_SwTimersInterrupt                                     cstackCOMRAM 000021
?i2_TMR1_ReadTimer                                        cstackCOMRAM 000001
?i2_TMR_GetDeltaTime                                      cstackCOMRAM 000009
?i2_TMR_SwapTimer                                         cstackCOMRAM 000009
AESCmac@flag                                              cstackBANK1  0001CC
AESCmac@i                                                 cstackBANK1  0001CF
AESCmac@input                                             cstackBANK0  0000BD
AESCmac@j                                                 cstackBANK1  0001CE
AESCmac@k1                                                cstackBANK1  00017A
AESCmac@k2                                                cstackBANK1  00016A
AESCmac@key                                               cstackBANK0  0000B9
AESCmac@mLast                                             cstackBANK1  00018A
AESCmac@n                                                 cstackBANK1  0001CD
AESCmac@output                                            cstackBANK0  0000BB
AESCmac@padded                                            cstackBANK1  00019A
AESCmac@ptr                                               cstackBANK1  0001CA
AESCmac@size                                              cstackBANK0  0000BF
AESCmac@x                                                 cstackBANK1  0001BA
AESCmac@y                                                 cstackBANK1  0001AA
AESEncode@aux                                             cstackBANK0  000078
AESEncode@aux1                                            cstackBANK0  00007A
AESEncode@aux2                                            cstackBANK0  000079
AESEncode@aux3                                            cstackBANK0  00007B
AESEncode@block                                           cstackBANK0  000066
AESEncode@i                                               cstackBANK0  00007C
AESEncode@key                                             cstackBANK0  000068
AESEncodeLoRa@block                                       cstackBANK0  00007D
AESEncodeLoRa@key                                         cstackBANK0  00007F
AESEncodeLoRa@useKey                                      cstackBANK0  000081
AssembleEncryptionBlock@blockId                           cstackBANK0  00006F
AssembleEncryptionBlock@bufferIndex                       cstackBANK0  000073
AssembleEncryptionBlock@dir                               cstackBANK0  000072
AssembleEncryptionBlock@firstByte                         cstackBANK0  000070
AssembleEncryptionBlock@frameCounter                      cstackBANK0  00006B
AssembleEncryptionBlock@multicastStatus                   cstackBANK0  000071
AssemblePacket@buffer                                     cstackBANK0  0000C8
AssemblePacket@bufferIndex                                cstackBANK0  0000D2
AssemblePacket@bufferLength                               cstackBANK0  0000CA
AssemblePacket@confirmed                                  cstackBANK0  0000CE
AssemblePacket@fCtrl                                      cstackBANK0  0000D0
AssemblePacket@macCmdIdx                                  cstackBANK0  0000D1
AssemblePacket@mhdr                                       cstackBANK0  0000CF
AssemblePacket@port                                       cstackBANK0  0000C7
CheckFlags@hdr                                            cstackBANK0  000060
CheckMcastFlags@hdr                                       cstackBANK0  000060
ComputeMic@buffer                                         cstackBANK0  0000C9
ComputeMic@bufferLength                                   cstackBANK0  0000CB
ComputeMic@key                                            cstackBANK0  0000C7
ComputeMic@mic                                            cstackBANK0  0000CC
ComputeSessionKeys@joinAcceptBuffer                       cstackBANK0  000091
ConfigureRadio@dataRate                                   cstackBANK0  000072
ConfigureRadio@freq                                       cstackBANK0  00006E
ConfigureRadioRx@dataRate                                 cstackBANK0  000077
ConfigureRadioRx@freq                                     cstackBANK0  000073
ConfigureRadioTx@dataRate                                 cstackBANK0  000077
ConfigureRadioTx@freq                                     cstackBANK0  000073
ConfigureRadioTx@txPower                                  cstackBANK0  000078
CountfOptsLength@i                                        cstackBANK0  000067
CountfOptsLength@macCommandLength                         cstackBANK0  000066
EUSART1_SetErrorHandler@interruptHandler                  cstackBANK0  000060
EUSART1_SetFramingErrorHandler@interruptHandler           cstackBANK0  000060
EUSART1_SetOverrunErrorHandler@interruptHandler           cstackBANK0  000060
EUSART1_Write@txData                                      cstackBANK0  000060
EnableChannels1@channelIndexMax                           cstackBANK0  000068
EnableChannels1@channelIndexMin                           cstackBANK0  000067
EnableChannels1@channelMask                               cstackBANK0  000064
EnableChannels1@channelMaskCntl                           cstackBANK0  000066
EnableChannels1@i                                         cstackBANK0  00006B
EnableChannels@channelMask                                cstackBANK0  00006C
EnableChannels@channelMaskCntl                            cstackBANK0  00006E
EncKeySchedule@key                                        cstackBANK0  000060
EncodeShiftRow@stateTable                                 cstackBANK0  000060
EncodeShiftRow@temp                                       cstackBANK0  000062
EncryptFRMPayload@buffer                                  cstackBANK0  000091
EncryptFRMPayload@bufferLength                            cstackBANK0  000093
EncryptFRMPayload@bufferToBeEncrypted                     cstackBANK0  00009C
EncryptFRMPayload@dir                                     cstackBANK0  000094
EncryptFRMPayload@frameCounter                            cstackBANK0  000095
EncryptFRMPayload@i                                       cstackBANK0  0000A7
EncryptFRMPayload@j                                       cstackBANK0  0000A8
EncryptFRMPayload@k                                       cstackBANK0  0000A6
EncryptFRMPayload@key                                     cstackBANK0  000099
EncryptFRMPayload@macBufferIndex                          cstackBANK0  00009B
EncryptFRMPayload@multicastStatus                         cstackBANK0  00009E
ExecuteDevStatus@ptr                                      cstackBANK0  000060
ExecuteDutyCycle@maxDCycle                                cstackBANK0  000065
ExecuteDutyCycle@ptr                                      cstackBANK0  000060
ExecuteLinkAdr@channelMask                                cstackBANK0  000073
ExecuteLinkAdr@dataRate                                   cstackBANK0  000078
ExecuteLinkAdr@ptr                                        cstackBANK0  00006F
ExecuteLinkAdr@redundancy                                 cstackBANK0  000076
ExecuteLinkAdr@txPower                                    cstackBANK0  000075
ExecuteLinkCheck@ptr                                      cstackBANK0  000060
ExecuteNewChannel@channelIndex                            cstackBANK0  0000AF
ExecuteNewChannel@drRange                                 cstackBANK0  0000AA
ExecuteNewChannel@frequency                               cstackBANK0  0000AB
ExecuteNewChannel@ptr                                     cstackBANK0  0000A6
ExecuteRxParamSetupReq@dlSettings                         cstackBANK0  0000AE
ExecuteRxParamSetupReq@frequency                          cstackBANK0  0000AA
ExecuteRxParamSetupReq@ptr                                cstackBANK0  0000A6
ExecuteRxTimingSetup@delay                                cstackBANK0  000069
ExecuteRxTimingSetup@ptr                                  cstackBANK0  000067
ExtractMic@buffer                                         cstackBANK0  00006B
ExtractMic@bufferLength                                   cstackBANK0  00006D
ExtractMic@mic                                            cstackBANK0  000073
FillSubKey@carry                                          cstackBANK0  000066
FillSubKey@i                                              cstackBANK0  000067
FillSubKey@key                                            cstackBANK0  000062
FillSubKey@size                                           cstackBANK0  000064
FillSubKey@source                                         cstackBANK0  000060
FindSmallestDataRate@dataRate                             cstackBANK0  000063
FindSmallestDataRate@found                                cstackBANK0  000061
FindSmallestDataRate@i                                    cstackBANK0  000062
GenerateSubkey@F7103                                      dataBANK1    0001D3
GenerateSubkey@const_Rb                                   cstackBANK0  000098
GenerateSubkey@i                                          cstackBANK0  0000B8
GenerateSubkey@k1                                         cstackBANK0  000093
GenerateSubkey@k2                                         cstackBANK0  000095
GenerateSubkey@key                                        cstackBANK0  000091
GenerateSubkey@l                                          cstackBANK0  0000A8
HALResetPinOutputValue@value                              cstackBANK0  000060
HALSPISend@data                                           cstackBANK0  000061
INT1_SetInterruptHandler@InterruptHandler                 cstackBANK0  000060
INT2_SetInterruptHandler@InterruptHandler                 cstackBANK0  000060
INTERRUPT_GetDioStatus@a                                  cstackBANK0  000060
IOCB4_SetInterruptHandler@InterruptHandler                cstackBANK0  000060
IncludeMacCommandsResponse@bIncludeInFopts                cstackBANK0  000064
IncludeMacCommandsResponse@bufferIndex                    cstackBANK0  00006E
IncludeMacCommandsResponse@i                              cstackBANK0  00006D
IncludeMacCommandsResponse@macBuffer                      cstackBANK0  000060
IncludeMacCommandsResponse@pBufferIndex                   cstackBANK0  000062
InitDefault433Channels@i                                  cstackBANK0  00006B
InitDefault868Channels@i                                  cstackBANK0  00006B
LORAWAN_GetMaxPayloadSize@macCommandsLength               cstackBANK0  000069
LORAWAN_GetMaxPayloadSize@result                          cstackBANK0  00006A
LORAWAN_Init@RxJoinResponse                               cstackBANK0  0000B4
LORAWAN_Init@RxPayload                                    cstackBANK0  0000B2
LORAWAN_Join@activationTypeNew                            cstackBANK0  0000DD
LORAWAN_Join@bufferIndex                                  cstackBANK0  0000DB
LORAWAN_Join@result                                       cstackBANK0  0000DC
LORAWAN_LinkCheckConfigure@iCtr                           cstackBANK0  0000B0
LORAWAN_LinkCheckConfigure@period                         cstackBANK0  0000A6
LORAWAN_Reset@ismBandNew                                  cstackBANK0  0000B1
LORAWAN_RxDone@buffer                                     cstackBANK1  0001D0
LORAWAN_RxDone@bufferIndex                                cstackBANK0  0000E6
LORAWAN_RxDone@bufferLength                               cstackBANK1  0001D2
LORAWAN_RxDone@channelIndex                               cstackBANK0  0000E0
LORAWAN_RxDone@computedMic                                cstackBANK0  0000EA
LORAWAN_RxDone@extractedMic                               cstackBANK0  0000E2
LORAWAN_RxDone@fPort                                      cstackBANK0  0000DF
LORAWAN_RxDone@frmPayloadLength                           cstackBANK0  0000F0
LORAWAN_RxDone@hdr                                        cstackBANK0  0000F1
LORAWAN_RxDone@joinAccept                                 cstackBANK0  0000EE
LORAWAN_RxDone@mhdr                                       cstackBANK0  0000E1
LORAWAN_RxDone@packet                                     cstackBANK0  0000E8
LORAWAN_RxDone@temp                                       cstackBANK0  0000E7
LORAWAN_RxTimeout@i                                       cstackBANK0  0000CA
LORAWAN_RxTimeout@minim                                   cstackBANK0  0000C6
LORAWAN_Send@buffer                                       cstackBANK0  0000D4
LORAWAN_Send@bufferLength                                 cstackBANK0  0000D6
LORAWAN_Send@confirmed                                    cstackBANK0  0000D9
LORAWAN_Send@port                                         cstackBANK0  0000D3
LORAWAN_Send@result                                       cstackBANK0  0000D8
LORAWAN_SetApplicationSessionKey@applicationSessionKeyNew cstackBANK0  00006B
LORAWAN_SetChannelIdStatus@channelId                      cstackBANK0  000066
LORAWAN_SetChannelIdStatus@result                         cstackBANK0  000065
LORAWAN_SetChannelIdStatus@statusNew                      cstackBANK0  000064
LORAWAN_SetDeviceAddress@deviceAddressNew                 cstackBANK0  000060
LORAWAN_SetNetworkSessionKey@networkSessionKeyNew         cstackBANK0  00006B
LORAWAN_TxDone@delta                                      cstackBANK0  0000D2
LORAWAN_TxDone@found                                      cstackBANK0  0000D1
LORAWAN_TxDone@i                                          cstackBANK0  0000E2
LORAWAN_TxDone@minim                                      cstackBANK0  0000DE
LORAWAN_TxDone@ticks                                      cstackBANK0  0000DA
LORAWAN_TxDone@timeOnAir                                  cstackBANK0  0000BB
MacExecuteCommands@buffer                                 cstackBANK0  0000B0
MacExecuteCommands@done                                   cstackBANK0  0000B5
MacExecuteCommands@fOptsLen                               cstackBANK0  0000B2
MacExecuteCommands@ptr                                    cstackBANK0  0000B6
PrepareJoinRequestFrame@bufferIndex                       cstackBANK0  0000DA
PrepareJoinRequestFrame@iCtr                              cstackBANK0  0000D9
PrepareJoinRequestFrame@mhdr                              cstackBANK0  0000D8
PrepareJoinRequestFrame@mic                               cstackBANK0  0000D4
PrepareSessionKeys@appNonce                               cstackBANK0  00006D
PrepareSessionKeys@index                                  cstackBANK0  000071
PrepareSessionKeys@networkId                              cstackBANK0  00006F
PrepareSessionKeys@sessionKey                             cstackBANK0  00006B
RADIO_DIO0@dioMapping                                     cstackBANK0  0000F7
RADIO_DIO0@opMode                                         cstackBANK0  0000F8
RADIO_DIO1@dioMapping                                     cstackBANK0  0000CC
RADIO_DIO2@dioMapping                                     cstackBANK0  00007C
RADIO_DIO2@opMode                                         cstackBANK0  00007B
RADIO_DIO3@dioMapping                                     cstackBANK0  000066
RADIO_DIO4@dioMapping                                     cstackBANK0  000067
RADIO_DIO5@dioMapping                                     cstackBANK0  000066
RADIO_FHSSChangeChannel@irqFlags                          cstackBANK0  000079
RADIO_FSKPacketSent@irqFlags                              cstackBANK0  0000EF
RADIO_FSKPacketSent@timeOnAir                             cstackBANK0  0000E7
RADIO_FSKPayloadReady@i                                   cstackBANK0  0000F4
RADIO_FSKPayloadReady@irqFlags                            cstackBANK0  0000F3
RADIO_Init@frequency                                      cstackBANK0  00007B
RADIO_Init@radioBuffer                                    cstackBANK0  000079
RADIO_ReadRandom@i                                        cstackBANK0  000071
RADIO_ReadRandom@retVal                                   cstackBANK0  00006F
RADIO_ReceiveStart@rxWindowSize                           cstackBANK0  0000B1
RADIO_RegisterRead@readValue                              cstackBANK0  000063
RADIO_RegisterRead@reg                                    cstackBANK0  000062
RADIO_RegisterWrite@reg                                   cstackBANK0  000063
RADIO_RegisterWrite@value                                 cstackBANK0  000062
RADIO_RxDone@i                                            cstackBANK0  0000F4
RADIO_RxDone@irqFlags                                     cstackBANK0  0000F3
RADIO_SetBandwidth@bandwidth                              cstackBANK0  000060
RADIO_SetCRC@crc                                          cstackBANK0  000060
RADIO_SetChannelFrequency@frequency                       cstackBANK0  000060
RADIO_SetFSKSyncWord@syncWord                             cstackBANK0  00006B
RADIO_SetFSKSyncWord@syncWordLen                          cstackBANK0  00006D
RADIO_SetFrequencyHopPeriod@frequencyHopPeriod            cstackBANK0  000060
RADIO_SetIQInverted@iqInverted                            cstackBANK0  000060
RADIO_SetLoRaSyncWord@syncWord                            cstackBANK0  000060
RADIO_SetModulation@modulation                            cstackBANK0  000060
RADIO_SetOutputPower@power                                cstackBANK0  000060
RADIO_SetSpreadingFactor@spreadingFactor                  cstackBANK0  000060
RADIO_Transmit@buffer                                     cstackBANK0  0000B1
RADIO_Transmit@bufferLen                                  cstackBANK0  0000B3
RADIO_Transmit@i                                          cstackBANK0  0000C1
RADIO_Transmit@regValue                                   cstackBANK0  0000C0
RADIO_TxDone@timeOnAir                                    cstackBANK0  0000E7
RADIO_UnhandledInterrupt@modulation                       cstackBANK0  000064
RADIO_WriteConfiguration@i                                cstackBANK0  0000AB
RADIO_WriteConfiguration@regValue                         cstackBANK0  0000B0
RADIO_WriteConfiguration@symbolTimeout                    cstackBANK0  0000A6
RADIO_WriteConfiguration@tempValue                        cstackBANK0  0000AC
RADIO_WriteFSKBitRate@bitRate                             cstackBANK0  00006D
RADIO_WriteFSKBitRate@num                                 cstackBANK0  000071
RADIO_WriteFSKFrequencyDeviation@frequencyDeviation       cstackBANK0  00006D
RADIO_WriteFSKFrequencyDeviation@num                      cstackBANK0  000071
RADIO_WriteFrequency@frequency                            cstackBANK0  00006D
RADIO_WriteFrequency@num                                  cstackBANK0  000075
RADIO_WriteFrequency@num_mod                              cstackBANK0  000071
RADIO_WriteMode@blocking                                  cstackBANK0  000066
RADIO_WriteMode@currentMode                               cstackBANK0  000069
RADIO_WriteMode@currentModulation                         cstackBANK0  000067
RADIO_WriteMode@dioMapping                                cstackBANK0  000068
RADIO_WriteMode@newMode                                   cstackBANK0  00006A
RADIO_WriteMode@newModulation                             cstackBANK0  000065
RADIO_WriteMode@opMode                                    cstackBANK0  00006B
RADIO_WritePower@ocp                                      cstackBANK0  000064
RADIO_WritePower@paDac                                    cstackBANK0  000065
RADIO_WritePower@power                                    cstackBANK0  000066
Random@max                                                cstackBANK0  0000AD
RxData@dataLength                                         cstackBANK0  000062
RxData@pData                                              cstackBANK0  000060
RxData@status                                             cstackBANK0  000063
SPI2_Exchange8bit@data                                    cstackBANK0  000060
SearchAvailableChannel@channelIndex                       cstackBANK0  0000B0
SearchAvailableChannel@i                                  cstackBANK0  0000BA
SearchAvailableChannel@maxChannels                        cstackBANK0  0000B8
SearchAvailableChannel@randomNumber                       cstackBANK0  0000B9
SearchAvailableChannel@randomNumberCopy                   cstackBANK0  0000B6
SearchAvailableChannel@result                             cstackBANK0  0000B7
SearchAvailableChannel@transmissionType                   cstackBANK0  0000AF
SelectChannelForTransmission@channelIndex                 cstackBANK0  0000BD
SelectChannelForTransmission@result                       cstackBANK0  0000BC
SelectChannelForTransmission@transmissionType             cstackBANK0  0000BB
StartReTxTimer@i                                          cstackBANK0  0000A2
StartReTxTimer@minim                                      cstackBANK0  00009E
SwTimerCreate@retVal                                      cstackBANK0  000060
SwTimerIsRunning@isRunning                                cstackBANK0  000061
SwTimerIsRunning@timerId                                  cstackBANK0  000060
SwTimerReadValue@ticksCount                               cstackBANK0  000095
SwTimerReadValue@timerId                                  cstackBANK0  000099
SwTimerSetCallback@callback                               cstackBANK0  000060
SwTimerSetCallback@callbackParameter                      cstackBANK0  000062
SwTimerSetCallback@timerId                                cstackBANK0  000063
SwTimerSetTimeout@timeout                                 cstackBANK0  00006D
SwTimerSetTimeout@timerId                                 cstackBANK0  000075
SwTimerStart@ticksRemaining                               cstackBANK0  000095
SwTimerStart@timerId                                      cstackBANK0  000099
SwTimerStop@timerId                                       cstackBANK0  000060
SwTimersExecute@i                                         cstackBANK0  0000DE
SwTimersInterrupt@i                                       cstackBANK0  000090
SwTimersInterrupt@ticksToNextTimerEvent                   cstackBANK0  00008C
SwTimersInterrupt@timeElapsed                             cstackBANK0  000088
SystemBlockingWaitMs@ms                                   cstackBANK0  000060
TMR1_ReadTimer@readVal                                    cstackBANK0  000064
TMR1_ReadTimer@readValHigh                                cstackBANK0  000066
TMR1_ReadTimer@readValLow                                 cstackBANK0  000067
TMR1_SetInterruptHandler@InterruptHandler                 cstackBANK0  000060
TMR1_WriteTimer@timerVal                                  cstackBANK0  000060
TMR_GetDeltaTime@retVal                                   bssBANK1     000114
TMR_GetDeltaTime@tmrVal                                   bssBANK1     00011C
TMR_OverrideRemaining@oldReloadVal                        cstackBANK0  000072
TMR_OverrideRemaining@ticksRemaining                      cstackBANK0  00006A
TMR_OverrideRemaining@tmrVal                              cstackBANK0  000070
TMR_SwapTimer@oldVal                                      bssBANK1     00011A
TMR_SwapTimer@retVal                                      bssBANK1     000118
TMR_SwapTimer@timerVal                                    cstackBANK0  000068
UpdateCfList@bufferLength                                 cstackBANK0  0000A8
UpdateCfList@channelIndex                                 cstackBANK0  0000AD
UpdateCfList@frequency                                    cstackBANK0  0000A9
UpdateCfList@i                                            cstackBANK0  0000AE
UpdateCfList@joinAccept                                   cstackBANK0  0000A6
UpdateChannelIdStatus@channelId                           cstackBANK0  000062
UpdateChannelIdStatus@i                                   cstackBANK0  000063
UpdateChannelIdStatus@statusNew                           cstackBANK0  000060
UpdateCurrentDataRate@valueNew                            cstackBANK0  000060
UpdateDLSettings@dlRx1DrOffset                            cstackBANK0  000060
UpdateDLSettings@dlRx2Dr                                  cstackBANK0  000061
UpdateDataRange@channelId                                 cstackBANK0  000062
UpdateDataRange@dataRangeNew                              cstackBANK0  000060
UpdateDataRange@i                                         cstackBANK0  000063
UpdateDutyCycle@channelId                                 cstackBANK0  000062
UpdateDutyCycle@dutyCycleNew                              cstackBANK0  000060
UpdateFrequency@channelId                                 cstackBANK0  000064
UpdateFrequency@frequencyNew                              cstackBANK0  000060
UpdateJoinInProgress@state                                cstackBANK0  000060
UpdateMinMaxChDataRate@i                                  cstackBANK0  000061
UpdateReceiveDelays@delay                                 cstackBANK0  000066
UpdateReceiveWindow2Parameters@dataRate                   cstackBANK0  000064
UpdateReceiveWindow2Parameters@frequency                  cstackBANK0  000060
UpdateTxPower@txPowerNew                                  cstackBANK0  000060
ValidateChannelId@allowedForDefaultChannels               cstackBANK0  000060
ValidateChannelId@channelId                               cstackBANK0  000062
ValidateChannelId@result                                  cstackBANK0  000061
ValidateChannelMask@channelMask                           cstackBANK0  000060
ValidateChannelMask@i                                     cstackBANK0  000064
ValidateChannelMaskCntl@channelMaskCntl                   cstackBANK0  000061
ValidateChannelMaskCntl@result                            cstackBANK0  000060
ValidateDataRange@dataRangeNew                            cstackBANK0  000063
ValidateDataRange@dataRateMax                             cstackBANK0  000064
ValidateDataRange@dataRateMin                             cstackBANK0  000065
ValidateDataRange@result                                  cstackBANK0  000062
ValidateDataRate@dataRate                                 cstackBANK0  000060
ValidateDataRate@result                                   cstackBANK0  000061
ValidateFrequency@frequencyNew                            cstackBANK0  000060
ValidateFrequency@result                                  cstackBANK0  000064
ValidateRxOffset@result                                   cstackBANK0  000061
ValidateRxOffset@rxOffset                                 cstackBANK0  000060
ValidateTxPower@result                                    cstackBANK0  000060
ValidateTxPower@txPowerNew                                cstackBANK0  000061
_ADCON0                                                   (abs)        000FC2
_ADCON0bits                                               (abs)        000FC2
_ADCON1                                                   (abs)        000FC1
_ADCON2                                                   (abs)        000FC0
_ADC_Initialize                                           text31       008B32
_ADRESH                                                   (abs)        000FC4
_ADRESL                                                   (abs)        000FC3
_AESCmac                                                  text152      0021F0
_AESEncode                                                text156      0028FE
_AESEncode$509                                            cstackBANK0  000072
_AESEncode$510                                            cstackBANK0  000074
_AESEncode$511                                            cstackBANK0  000076
_AESEncodeLoRa                                            text155      00840A
_ANSELA                                                   (abs)        000F38
_ANSELB                                                   (abs)        000F39
_ANSELC                                                   (abs)        000F3A
_ANSELD                                                   (abs)        000F3B
_ANSELE                                                   (abs)        000F3C
_AckRetransmissionCallback                                text40       005AFA
_AssembleEncryptionBlock                                  text106      006012
_AssemblePacket                                           text100      001E40
_AutomaticReplyCallback                                   text39       00881A
_BAUDCON1                                                 (abs)        000FB8
_CCP5CON                                                  (abs)        000F54
_CCP5_Initialize                                          text30       008C10
_CCPR5H                                                   (abs)        000F56
_CCPR5L                                                   (abs)        000F55
_Channels                                                 bssBANK4     000400
_CheckFlags                                               text112      007B76
_CheckMcastFlags                                          text111      0073EC
_ComputeMic                                               text151      007932
_ComputeSessionKeys                                       text109      0072E2
_ConfigureRadio                                           text135      006C86
_ConfigureRadioRx                                         text125      008728
_ConfigureRadioTx                                         text131      007E90
_CountfOptsLength                                         text107      0068EA
_CreateAllSoftwareTimers                                  text200      007F34
_DIO0_ISR_Lora                                            text222      008D82
_DIO0_ISR_Lora_Init                                       text21       008C00
_DIO1_ISR_Lora                                            text218      008D7C
_DIO1_ISR_Lora_Init                                       text20       008BF0
_DIO2_ISR_Lora                                            text214      008D76
_DIO2_ISR_Lora_Init                                       text18       008BE0
_DIO3_ISR_Lora_Init                                       text17       008DA4
_DIO4_ISR_Lora_Init                                       text16       008DA2
_DIO5_ISR_Lora_Init                                       text15       008DA0
_DefaultChannels433                                       mediumconst  00FF8A
_DefaultChannels868                                       mediumconst  00FFB4
_DutyCycleCallback                                        text37       002C48
_EUSART1_DefaultErrorHandler                              (abs)        000000
_EUSART1_DefaultFramingErrorHandler                       (abs)        000000
_EUSART1_DefaultOverrunErrorHandler                       (abs)        000000
_EUSART1_ErrorHandler                                     nvBANK2      0002F5
_EUSART1_FramingErrorHandler                              nvBANK1      0001EF
_EUSART1_Initialize                                       text26       00801E
_EUSART1_OverrunErrorHandler                              nvBANK1      0001ED
_EUSART1_SetErrorHandler                                  text29       008CCA
_EUSART1_SetFramingErrorHandler                           text28       008CC0
_EUSART1_SetOverrunErrorHandler                           text27       008CB6
_EUSART1_Write                                            text3        008C3E
_EXT_INT_Initialize                                       text23       0086AA
_EnableChannels                                           text93       008A66
_EnableChannels1                                          text94       007654
_EncKeySchedule                                           text158      00350C
_EncKeySchedule$514                                       cstackBANK0  000064
_EncodeShiftRow                                           text157      0050E2
_EncryptFRMPayload                                        text104      00428A
_ExecuteDevStatus                                         text97       008CE8
_ExecuteDutyCycle                                         text96       007E3C
_ExecuteLinkAdr                                           text86       003244
_ExecuteLinkCheck                                         text85       0084A4
_ExecuteNewChannel                                        text77       0037B0
_ExecuteRxParamSetupReq                                   text74       003E88
_ExecuteRxTimingSetup                                     text71       00877A
_ExtractMic                                               text108      007C8A
_FillSubKey                                               text154      007994
_FindSmallestDataRate                                     text103      0064B0
_FskSyncWordBuff                                          mediumconst  00FFDE
_GenerateSubkey                                           text153      0054F2
_GetRx1Freq                                               text47       008B9A
_HALDIO5PinValue                                          text171      008C82
_HALResetPinMakeInput                                     text183      008D9C
_HALResetPinMakeOutput                                    text182      008D98
_HALResetPinOutputValue                                   text181      008AB8
_HALSPICSAssert                                           text178      008D94
_HALSPICSDeassert                                         text177      008D90
_HALSPISend                                               text175      008C68
_INT1_CallBack                                            text221      008A0C
_INT1_DefaultInterruptHandler                             text223      008DB0
_INT1_ISR                                                 text220      008D5C
_INT1_InterruptHandler                                    nvBANK1      0001F9
_INT1_SetInterruptHandler                                 text25       008CAC
_INT2_CallBack                                            text217      0089EC
_INT2_DefaultInterruptHandler                             text219      008DAE
_INT2_ISR                                                 text216      008D54
_INT2_InterruptHandler                                    nvBANK1      0001F7
_INT2_SetInterruptHandler                                 text24       008CA2
_INTCON2bits                                              (abs)        000FF1
_INTCON3bits                                              (abs)        000FF0
_INTCONbits                                               (abs)        000FF2
_INTERRUPT_GetDioStatus                                   text126      008B72
_INTERRUPT_Initialize                                     text22       008D8C
_INTERRUPT_InterruptManager                               intcode      000008
_IOCB4_DefaultInterruptHandler                            text215      008DAC
_IOCB4_ISR                                                text213      0089CC
_IOCB4_InterruptHandler                                   nvBANK1      0001F5
_IOCB4_SetInterruptHandler                                text19       008C98
_IOCBbits                                                 (abs)        000F62
_IncludeMacCommandsResponse                               text101      0019DE
_InitDefault433Channels                                   text197      0071D2
_InitDefault868Channels                                   text196      007148
_LATA                                                     (abs)        000F89
_LATAbits                                                 (abs)        000F89
_LATB                                                     (abs)        000F8A
_LATC                                                     (abs)        000F8B
_LATC2                                                    (abs)        007C5A
_LATD                                                     (abs)        000F8C
_LATD3                                                    (abs)        007C63
_LATE                                                     (abs)        000F8D
_LORAWAN_EnterContinuousReceive                           text118      0074EC
_LORAWAN_GetMaxPayloadSize                                text99       007A58
_LORAWAN_Init                                             text159      0079F6
_LORAWAN_Join                                             text127      006D2E
_LORAWAN_LinkCheckCallback                                text41       004CA4
_LORAWAN_LinkCheckConfigure                               text184      005246
_LORAWAN_LinkCheckConfigure$2492                          cstackBANK0  0000AC
_LORAWAN_Mainloop                                         text35       008390
_LORAWAN_PlatformInit                                     text11       008864
_LORAWAN_ReceiveWindow1Callback                           text42       006A6E
_LORAWAN_ReceiveWindow2Callback                           text43       00666C
_LORAWAN_Reset                                            text163      004462
_LORAWAN_RxDone                                           text62       000086
_LORAWAN_RxTimeout                                        text61       00259A
_LORAWAN_Send                                             text98       006818
_LORAWAN_SetApplicationSessionKey                         text34       008622
_LORAWAN_SetChannelIdStatus                               text83       007C30
_LORAWAN_SetDeviceAddress                                 text33       008AEA
_LORAWAN_SetNetworkSessionKey                             text32       0085F4
_LORAWAN_TxDone                                           text114      000D2C
_LORAWAN_TxDone$1666                                      cstackBANK0  0000C9
_LORAWAN_TxDone$1667                                      cstackBANK0  0000CD
_LORAWAN_TxDone$5688                                      cstackBANK0  0000D6
_MacExecuteCommands                                       text70       002F4E
_OSCCON                                                   (abs)        000FD3
_OSCCON2                                                  (abs)        000FD2
_OSCCONbits                                               (abs)        000FD3
_OSCILLATOR_Initialize                                    text10       008C5A
_OSCTUNE                                                  (abs)        000F9B
_PIE1bits                                                 (abs)        000F9D
_PIN_MANAGER_IOC                                          text212      008D42
_PIN_MANAGER_Initialize                                   text9        007DE8
_PIR1bits                                                 (abs)        000F9E
_PIR5bits                                                 (abs)        000F7E
_PORTBbits                                                (abs)        000F81
_PrepareJoinRequestFrame                                  text147      004992
_PrepareSessionKeys                                       text110      006BDA
_RADIO_DIO0                                               text55       006FA2
_RADIO_DIO1                                               text52       007F86
_RADIO_DIO2                                               text51       007D3C
_RADIO_DIO3                                               text50       008886
_RADIO_DIO4                                               text49       008440
_RADIO_DIO5                                               text48       008752
_RADIO_FHSSChangeChannel                                  text54       008310
_RADIO_FSKPacketSent                                      text113      00577C
_RADIO_FSKPacketSent$793                                  cstackBANK0  0000EB
_RADIO_FSKPayloadReady                                    text60       006B26
_RADIO_GetPacketSnr                                       text102      008D64
_RADIO_GetStatus                                          text117      008D6A
_RADIO_Init                                               text167      004630
_RADIO_ReadRandom                                         text162      006DD2
_RADIO_ReceiveStart                                       text124      003C58
_RADIO_ReceiveStart$777                                   cstackBANK0  0000B7
_RADIO_ReceiveStop                                        text123      00892C
_RADIO_RegisterRead                                       text170      0087CA
_RADIO_RegisterWrite                                      text174      00894C
_RADIO_ReleaseData                                        text122      008D70
_RADIO_Reset                                              text179      0080F0
_RADIO_RxDone                                             text58       0063CC
_RADIO_RxFSKTimeout                                       text45       0083CE
_RADIO_RxTimeout                                          text53       008650
_RADIO_SetBandwidth                                       text141      008D2E
_RADIO_SetCRC                                             text134      008D06
_RADIO_SetChannelFrequency                                text140      0070BE
_RADIO_SetFSKSyncWord                                     text139      008536
_RADIO_SetFrequencyHopPeriod                              text138      008D24
_RADIO_SetIQInverted                                      text133      008CFC
_RADIO_SetLoRaSyncWord                                    text166      008D38
_RADIO_SetModulation                                      text137      008D1A
_RADIO_SetOutputPower                                     text132      008CF2
_RADIO_SetSpreadingFactor                                 text136      008D10
_RADIO_Transmit                                           text142      003A20
_RADIO_Transmit$772                                       cstackBANK0  0000B8
_RADIO_Transmit$774                                       cstackBANK0  0000BC
_RADIO_TxDone                                             text57       0059D4
_RADIO_TxDone$789                                         cstackBANK0  0000EB
_RADIO_UnhandledInterrupt                                 text56       008472
_RADIO_WatchdogTimeout                                    text44       008064
_RADIO_WriteConfiguration                                 text143      0014DE
_RADIO_WriteFSKBitRate                                    text146      007796
_RADIO_WriteFSKFrequencyDeviation                         text145      00772C
_RADIO_WriteFrequency                                     text172      0061F6
_RADIO_WriteMode                                          text169      005E1A
_RADIO_WritePower                                         text144      006106
_RCONbits                                                 (abs)        000FD0
_RCREG1                                                   (abs)        000FAE
_RCSTA1                                                   (abs)        000FAB
_RCSTA1bits                                               (abs)        000FAB
_RadioConfiguration                                       bssBANK1     000124
_Random                                                   text148      0088A8
_ResetParametersForConfirmedTransmission                  text121      008BAC
_ResetParametersForUnconfirmedTransmission                text120      008B5E
_RxData                                                   text119      008DA8
_RxJoinResponse                                           text69       008DA6
_SPBRG1                                                   (abs)        000FAF
_SPBRGH1                                                  (abs)        000FB0
_SPI2_Exchange8bit                                        text176      008BBE
_SPI2_Initialize                                          text8        008C4C
_SSP2ADD                                                  (abs)        000F6E
_SSP2BUF                                                  (abs)        000F6F
_SSP2CON1                                                 (abs)        000F6C
_SSP2CON1bits                                             (abs)        000F6C
_SSP2STAT                                                 (abs)        000F6D
_SSP2STATbits                                             (abs)        000F6D
_STable                                                   mediumconst  00FE49
_SYSTEM_Initialize                                        text5        0085C6
_SearchAvailableChannel                                   text130      0058AA
_SelectChannelForTransmission                             text129      0076C0
_SetCallbackSoftwareTimers                                text161      00658E
_SetJoinFailState                                         text68       008506
_SetReceptionNotOkState                                   text67       00746E
_StartReTxTimer                                           text66       004B22
_StopAllSoftwareTimers                                    text165      007EE2
_SwTimerCreate                                            text201      007032
_SwTimerIsRunning                                         text116      0086FE
_SwTimerReadValue                                         text115      008350
_SwTimerSetCallback                                       text168      008202
_SwTimerSetTimeout                                        text195      008246
_SwTimerStart                                             text188      006E76
_SwTimerStop                                              text187      0087F2
_SwTimersExecute                                          text36       0062E6
_SwTimersInterrupt                                        text192      005C18
_SystemBlockingWaitMs                                     text180      008566
_SystemTimerInit                                          text14       008D4C
_T1CON                                                    (abs)        000FCD
_T1CONbits                                                (abs)        000FCD
_T1GCON                                                   (abs)        000FCC
_T1GCONbits                                               (abs)        000FCC
_T5CON                                                    (abs)        000F4E
_T5CONbits                                                (abs)        000F4E
_T5GCON                                                   (abs)        000F4D
_T5GCONbits                                               (abs)        000F4D
_TMR1                                                     (abs)        000FCE
_TMR1H                                                    (abs)        000FCF
_TMR1L                                                    (abs)        000FCE
_TMR1_CallBack                                            text204      00898C
_TMR1_DefaultInterruptHandler                             text205      008DAA
_TMR1_ISR                                                 text203      008B86
_TMR1_Initialize                                          text7        00867E
_TMR1_InterruptHandler                                    nvBANK1      0001F1
_TMR1_ReadTimer                                           text194      0088CA
_TMR1_SetInterruptHandler                                 text13       008C8E
_TMR1_WriteTimer                                          text191      00896C
_TMR5                                                     (abs)        000F4F
_TMR5H                                                    (abs)        000F50
_TMR5IF                                                   (abs)        007BF1
_TMR5L                                                    (abs)        000F4F
_TMR5_HasOverflowOccured                                  text4        008C76
_TMR5_Initialize                                          text6        008A2C
_TMR_GetDeltaTime                                         text193      0047FA
_TMR_ISR_Lora_Init                                        text12       008BD0
_TMR_ISR_lora                                             text206      007D92
_TMR_OverrideRemaining                                    text189      006F0C
_TMR_SwapTimer                                            text190      007FD4
_TRISA                                                    (abs)        000F92
_TRISB                                                    (abs)        000F93
_TRISC                                                    (abs)        000F94
_TRISC2                                                   (abs)        007CA2
_TRISD                                                    (abs)        000F95
_TRISE                                                    (abs)        000F96
_TXREG1                                                   (abs)        000FAD
_TXSTA1                                                   (abs)        000FAC
_TXSTA1bits                                               (abs)        000FAC
_UnconfirmedTransmissionCallback                          text46       00756A
_UpdateCfList                                             text65       00409C
_UpdateChannelIdStatus                                    text95       004F7C
_UpdateCurrentDataRate                                    text92       008CDE
_UpdateDLSettings                                         text64       008A4A
_UpdateDataRange                                          text82       0053A4
_UpdateDutyCycle                                          text81       00817A
_UpdateFrequency                                          text80       008136
_UpdateJoinInProgress                                     text128      008A9E
_UpdateJoinSuccessState                                   text38       00563E
_UpdateMinMaxChDataRate                                   text164      005F18
_UpdateReceiveDelays                                      text72       0082CE
_UpdateReceiveWindow2Parameters                           text76       008B48
_UpdateRetransmissionAckTimeoutState                      text63       0075E2
_UpdateTxPower                                            text91       008CD4
_ValidateChannelId                                        text84       008840
_ValidateChannelMask                                      text90       007B18
_ValidateChannelMaskCntl                                  text89       00890C
_ValidateDataRange                                        text79       0080AA
_ValidateDataRate                                         text88       008B1A
_ValidateFrequency                                        text78       0078CC
_ValidateRxOffset                                         text75       008B02
_ValidateTxPower                                          text87       0086D4
_WPUB                                                     (abs)        000F61
__CFG_BOREN$SBORDIS                                       (abs)        000000
__CFG_BORV$190                                            (abs)        000000
__CFG_CCP2MX$PORTC1                                       (abs)        000000
__CFG_CCP3MX$PORTB5                                       (abs)        000000
__CFG_CP0$OFF                                             (abs)        000000
__CFG_CP1$OFF                                             (abs)        000000
__CFG_CP2$OFF                                             (abs)        000000
__CFG_CP3$OFF                                             (abs)        000000
__CFG_CPB$OFF                                             (abs)        000000
__CFG_CPD$OFF                                             (abs)        000000
__CFG_DEBUG$OFF                                           (abs)        000000
__CFG_EBTR0$OFF                                           (abs)        000000
__CFG_EBTR1$OFF                                           (abs)        000000
__CFG_EBTR2$OFF                                           (abs)        000000
__CFG_EBTR3$OFF                                           (abs)        000000
__CFG_EBTRB$OFF                                           (abs)        000000
__CFG_FCMEN$OFF                                           (abs)        000000
__CFG_FOSC$INTIO67                                        (abs)        000000
__CFG_HFOFST$ON                                           (abs)        000000
__CFG_IESO$OFF                                            (abs)        000000
__CFG_LVP$ON                                              (abs)        000000
__CFG_MCLRE$EXTMCLR                                       (abs)        000000
__CFG_P2BMX$PORTD2                                        (abs)        000000
__CFG_PBADEN$ON                                           (abs)        000000
__CFG_PLLCFG$OFF                                          (abs)        000000
__CFG_PRICLKEN$ON                                         (abs)        000000
__CFG_PWRTEN$OFF                                          (abs)        000000
__CFG_STVREN$ON                                           (abs)        000000
__CFG_T3CMX$PORTC0                                        (abs)        000000
__CFG_WDTEN$SWON                                          (abs)        000000
__CFG_WDTPS$32768                                         (abs)        000000
__CFG_WRT0$OFF                                            (abs)        000000
__CFG_WRT1$OFF                                            (abs)        000000
__CFG_WRT2$OFF                                            (abs)        000000
__CFG_WRT3$OFF                                            (abs)        000000
__CFG_WRTB$OFF                                            (abs)        000000
__CFG_WRTC$OFF                                            (abs)        000000
__CFG_WRTD$OFF                                            (abs)        000000
__CFG_XINST$OFF                                           (abs)        000000
__HRAM                                                    (abs)        000000
__Habs1                                                   abs1         000000
__Hbank0                                                  bank0        000000
__Hbank1                                                  bank1        000000
__Hbank10                                                 bank10       000000
__Hbank11                                                 bank11       000000
__Hbank12                                                 bank12       000000
__Hbank13                                                 bank13       000000
__Hbank14                                                 bank14       000000
__Hbank15                                                 bank15       000000
__Hbank2                                                  bank2        000000
__Hbank3                                                  bank3        000000
__Hbank4                                                  bank4        000000
__Hbank5                                                  bank5        000000
__Hbank6                                                  bank6        000000
__Hbank7                                                  bank7        000000
__Hbank8                                                  bank8        000000
__Hbank9                                                  bank9        000000
__Hbigbss                                                 bigbss       000000
__Hbigdata                                                bigdata      000000
__Hbigram                                                 bigram       000000
__Hbss                                                    bss          000000
__HbssBANK0                                               bssBANK0     000000
__HbssBANK1                                               bssBANK1     000000
__HbssBANK2                                               bssBANK2     000000
__HbssBANK3                                               bssBANK3     000000
__HbssBANK4                                               bssBANK4     000000
__HbssBIGRAM                                              bssBIGRAM    000000
__HbssCOMRAM                                              bssCOMRAM    000000
__Hcinit                                                  cinit        000000
__Hclrtext                                                clrtext      000000
__Hcomram                                                 comram       000000
__Hconfig                                                 config       30000E
__Hconst                                                  const        000000
__HcstackBANK0                                            cstackBANK0  000000
__HcstackBANK1                                            cstackBANK1  000000
__HcstackCOMRAM                                           cstackCOMRAM 000000
__Hdata                                                   data         000000
__HdataBANK1                                              dataBANK1    000000
__HdataBANK3                                              dataBANK3    000000
__HdataCOMRAM                                             dataCOMRAM   000000
__Heeprom_data                                            eeprom_data  000000
__Hfarbss                                                 farbss       000000
__Hfardata                                                fardata      000000
__Hibigdata                                               ibigdata     000000
__Hidata                                                  idata        000000
__HidataBANK1                                             idataBANK1   000000
__HidataBANK3                                             idataBANK3   000000
__HidataCOMRAM                                            idataCOMRAM  000000
__Hidloc                                                  idloc        200008
__Hifardata                                               ifardata     000000
__Hinit                                                   init         000086
__Hintcode                                                intcode      00007E
__Hintcode_body                                           intcode_body 000000
__Hintcodelo                                              intcodelo    00007E
__Hintentry                                               intentry     000000
__Hintret                                                 intret       000000
__Hintsave_regs                                           intsave_regs 000000
__Hirdata                                                 irdata       000000
__Hmediumconst                                            mediumconst  010000
__HnvBANK1                                                nvBANK1      000000
__HnvBANK2                                                nvBANK2      000000
__HnvFARRAM                                               nvFARRAM     000000
__Hnvbit                                                  nvbit        000000
__Hnvrram                                                 nvrram       000000
__Hparam                                                  rparam       000000
__Hpowerup                                                powerup      00007E
__Hram                                                    ram          000000
__Hramtop                                                 ramtop       001000
__Hrbit                                                   rbit         000000
__Hrbss                                                   rbss         000000
__Hrdata                                                  rdata        000000
__Hreset_vec                                              reset_vec    000006
__Hrparam                                                 rparam       000000
__Hsfr                                                    sfr          000000
__Hsmallconst                                             smallconst   000000
__Hspace_0                                                (abs)        30000E
__Hspace_1                                                (abs)        0006FE
__Hspace_2                                                (abs)        000F38
__Hstack                                                  stack        000F38
__Hstruct                                                 struct       000000
__Htemp                                                   temp         000054
__Htext                                                   text         000000
__Htext0                                                  text0        000000
__Htext1                                                  text1        000000
__Htext10                                                 text10       000000
__Htext100                                                text100      000000
__Htext101                                                text101      000000
__Htext102                                                text102      000000
__Htext103                                                text103      000000
__Htext104                                                text104      000000
__Htext105                                                text105      000000
__Htext106                                                text106      000000
__Htext107                                                text107      000000
__Htext108                                                text108      000000
__Htext109                                                text109      000000
__Htext11                                                 text11       000000
__Htext110                                                text110      000000
__Htext111                                                text111      000000
__Htext112                                                text112      000000
__Htext113                                                text113      000000
__Htext114                                                text114      000000
__Htext115                                                text115      000000
__Htext116                                                text116      000000
__Htext117                                                text117      000000
__Htext118                                                text118      000000
__Htext119                                                text119      000000
__Htext12                                                 text12       000000
__Htext120                                                text120      000000
__Htext121                                                text121      000000
__Htext122                                                text122      000000
__Htext123                                                text123      000000
__Htext124                                                text124      000000
__Htext125                                                text125      000000
__Htext126                                                text126      000000
__Htext127                                                text127      000000
__Htext128                                                text128      000000
__Htext129                                                text129      000000
__Htext13                                                 text13       000000
__Htext130                                                text130      000000
__Htext131                                                text131      000000
__Htext132                                                text132      000000
__Htext133                                                text133      000000
__Htext134                                                text134      000000
__Htext135                                                text135      000000
__Htext136                                                text136      000000
__Htext137                                                text137      000000
__Htext138                                                text138      000000
__Htext139                                                text139      000000
__Htext14                                                 text14       000000
__Htext140                                                text140      000000
__Htext141                                                text141      000000
__Htext142                                                text142      000000
__Htext143                                                text143      000000
__Htext144                                                text144      000000
__Htext145                                                text145      000000
__Htext146                                                text146      000000
__Htext147                                                text147      000000
__Htext148                                                text148      000000
__Htext149                                                text149      000000
__Htext15                                                 text15       000000
__Htext150                                                text150      000000
__Htext151                                                text151      000000
__Htext152                                                text152      000000
__Htext153                                                text153      000000
__Htext154                                                text154      000000
__Htext155                                                text155      000000
__Htext156                                                text156      000000
__Htext157                                                text157      000000
__Htext158                                                text158      000000
__Htext159                                                text159      000000
__Htext16                                                 text16       000000
__Htext160                                                text160      000000
__Htext161                                                text161      000000
__Htext162                                                text162      000000
__Htext163                                                text163      000000
__Htext164                                                text164      000000
__Htext165                                                text165      000000
__Htext166                                                text166      000000
__Htext167                                                text167      000000
__Htext168                                                text168      000000
__Htext169                                                text169      000000
__Htext17                                                 text17       000000
__Htext170                                                text170      000000
__Htext171                                                text171      000000
__Htext172                                                text172      000000
__Htext173                                                text173      000000
__Htext174                                                text174      000000
__Htext175                                                text175      000000
__Htext176                                                text176      000000
__Htext177                                                text177      000000
__Htext178                                                text178      000000
__Htext179                                                text179      000000
__Htext18                                                 text18       000000
__Htext180                                                text180      000000
__Htext181                                                text181      000000
__Htext182                                                text182      000000
__Htext183                                                text183      000000
__Htext184                                                text184      000000
__Htext185                                                text185      000000
__Htext186                                                text186      000000
__Htext187                                                text187      000000
__Htext188                                                text188      000000
__Htext189                                                text189      000000
__Htext19                                                 text19       000000
__Htext190                                                text190      000000
__Htext191                                                text191      000000
__Htext192                                                text192      000000
__Htext193                                                text193      000000
__Htext194                                                text194      000000
__Htext195                                                text195      000000
__Htext196                                                text196      000000
__Htext197                                                text197      000000
__Htext198                                                text198      000000
__Htext199                                                text199      000000
__Htext2                                                  text2        000000
__Htext20                                                 text20       000000
__Htext200                                                text200      000000
__Htext201                                                text201      000000
__Htext203                                                text203      000000
__Htext204                                                text204      000000
__Htext205                                                text205      000000
__Htext206                                                text206      000000
__Htext207                                                text207      000000
__Htext208                                                text208      000000
__Htext209                                                text209      000000
__Htext21                                                 text21       000000
__Htext210                                                text210      000000
__Htext211                                                text211      000000
__Htext212                                                text212      000000
__Htext213                                                text213      000000
__Htext214                                                text214      000000
__Htext215                                                text215      000000
__Htext216                                                text216      000000
__Htext217                                                text217      000000
__Htext218                                                text218      000000
__Htext219                                                text219      000000
__Htext22                                                 text22       000000
__Htext220                                                text220      000000
__Htext221                                                text221      000000
__Htext222                                                text222      000000
__Htext223                                                text223      000000
__Htext224                                                text224      000000
__Htext23                                                 text23       000000
__Htext24                                                 text24       000000
__Htext25                                                 text25       000000
__Htext26                                                 text26       000000
__Htext27                                                 text27       000000
__Htext28                                                 text28       000000
__Htext29                                                 text29       000000
__Htext3                                                  text3        000000
__Htext30                                                 text30       000000
__Htext31                                                 text31       000000
__Htext32                                                 text32       000000
__Htext33                                                 text33       000000
__Htext34                                                 text34       000000
__Htext35                                                 text35       000000
__Htext36                                                 text36       000000
__Htext37                                                 text37       000000
__Htext38                                                 text38       000000
__Htext39                                                 text39       000000
__Htext4                                                  text4        000000
__Htext40                                                 text40       000000
__Htext41                                                 text41       000000
__Htext42                                                 text42       000000
__Htext43                                                 text43       000000
__Htext44                                                 text44       000000
__Htext45                                                 text45       000000
__Htext46                                                 text46       000000
__Htext47                                                 text47       000000
__Htext48                                                 text48       000000
__Htext49                                                 text49       000000
__Htext5                                                  text5        000000
__Htext50                                                 text50       000000
__Htext51                                                 text51       000000
__Htext52                                                 text52       000000
__Htext53                                                 text53       000000
__Htext54                                                 text54       000000
__Htext55                                                 text55       000000
__Htext56                                                 text56       000000
__Htext57                                                 text57       000000
__Htext58                                                 text58       000000
__Htext59                                                 text59       000000
__Htext6                                                  text6        000000
__Htext60                                                 text60       000000
__Htext61                                                 text61       000000
__Htext62                                                 text62       000000
__Htext63                                                 text63       000000
__Htext64                                                 text64       000000
__Htext65                                                 text65       000000
__Htext66                                                 text66       000000
__Htext67                                                 text67       000000
__Htext68                                                 text68       000000
__Htext69                                                 text69       000000
__Htext7                                                  text7        000000
__Htext70                                                 text70       000000
__Htext71                                                 text71       000000
__Htext72                                                 text72       000000
__Htext73                                                 text73       000000
__Htext74                                                 text74       000000
__Htext75                                                 text75       000000
__Htext76                                                 text76       000000
__Htext77                                                 text77       000000
__Htext78                                                 text78       000000
__Htext79                                                 text79       000000
__Htext8                                                  text8        000000
__Htext80                                                 text80       000000
__Htext81                                                 text81       000000
__Htext82                                                 text82       000000
__Htext83                                                 text83       000000
__Htext84                                                 text84       000000
__Htext85                                                 text85       000000
__Htext86                                                 text86       000000
__Htext87                                                 text87       000000
__Htext88                                                 text88       000000
__Htext89                                                 text89       000000
__Htext9                                                  text9        000000
__Htext90                                                 text90       000000
__Htext91                                                 text91       000000
__Htext92                                                 text92       000000
__Htext93                                                 text93       000000
__Htext94                                                 text94       000000
__Htext95                                                 text95       000000
__Htext96                                                 text96       000000
__Htext97                                                 text97       000000
__Htext98                                                 text98       000000
__Htext99                                                 text99       000000
__LRAM                                                    (abs)        000001
__Labs1                                                   abs1         000000
__Lbank0                                                  bank0        000000
__Lbank1                                                  bank1        000000
__Lbank10                                                 bank10       000000
__Lbank11                                                 bank11       000000
__Lbank12                                                 bank12       000000
__Lbank13                                                 bank13       000000
__Lbank14                                                 bank14       000000
__Lbank15                                                 bank15       000000
__Lbank2                                                  bank2        000000
__Lbank3                                                  bank3        000000
__Lbank4                                                  bank4        000000
__Lbank5                                                  bank5        000000
__Lbank6                                                  bank6        000000
__Lbank7                                                  bank7        000000
__Lbank8                                                  bank8        000000
__Lbank9                                                  bank9        000000
__Lbigbss                                                 bigbss       000000
__Lbigdata                                                bigdata      000000
__Lbigram                                                 bigram       000000
__Lbss                                                    bss          000000
__LbssBANK0                                               bssBANK0     000000
__LbssBANK1                                               bssBANK1     000000
__LbssBANK2                                               bssBANK2     000000
__LbssBANK3                                               bssBANK3     000000
__LbssBANK4                                               bssBANK4     000000
__LbssBIGRAM                                              bssBIGRAM    000000
__LbssCOMRAM                                              bssCOMRAM    000000
__Lcinit                                                  cinit        000000
__Lclrtext                                                clrtext      000000
__Lcomram                                                 comram       000000
__Lconfig                                                 config       300000
__Lconst                                                  const        000000
__LcstackBANK0                                            cstackBANK0  000000
__LcstackBANK1                                            cstackBANK1  000000
__LcstackCOMRAM                                           cstackCOMRAM 000000
__Ldata                                                   data         000000
__LdataBANK1                                              dataBANK1    000000
__LdataBANK3                                              dataBANK3    000000
__LdataCOMRAM                                             dataCOMRAM   000000
__Leeprom_data                                            eeprom_data  000000
__Lfarbss                                                 farbss       000000
__Lfardata                                                fardata      000000
__Libigdata                                               ibigdata     000000
__Lidata                                                  idata        000000
__LidataBANK1                                             idataBANK1   000000
__LidataBANK3                                             idataBANK3   000000
__LidataCOMRAM                                            idataCOMRAM  000000
__Lidloc                                                  idloc        200000
__Lifardata                                               ifardata     000000
__Linit                                                   init         00007E
__Lintcode                                                intcode      000008
__Lintcode_body                                           intcode_body 000000
__Lintcodelo                                              intcodelo    00007E
__Lintentry                                               intentry     000000
__Lintret                                                 intret       000000
__Lintsave_regs                                           intsave_regs 000000
__Lirdata                                                 irdata       000000
__Lmediumconst                                            mediumconst  00FE48
__LnvBANK1                                                nvBANK1      000000
__LnvBANK2                                                nvBANK2      000000
__LnvFARRAM                                               nvFARRAM     000000
__Lnvbit                                                  nvbit        000000
__Lnvrram                                                 nvrram       000000
__Lparam                                                  rparam       000000
__Lpowerup                                                powerup      00007E
__Lram                                                    ram          000000
__Lramtop                                                 ramtop       001000
__Lrbit                                                   rbit         000000
__Lrbss                                                   rbss         000000
__Lrdata                                                  rdata        000000
__Lreset_vec                                              reset_vec    000000
__Lrparam                                                 rparam       000000
__Lsfr                                                    sfr          000000
__Lsmallconst                                             smallconst   000000
__Lspace_0                                                (abs)        000000
__Lspace_1                                                (abs)        000000
__Lspace_2                                                (abs)        000000
__Lstack                                                  stack        0006FE
__Lstruct                                                 struct       000000
__Ltemp                                                   temp         000048
__Ltext                                                   text         000000
__Ltext0                                                  text0        000000
__Ltext1                                                  text1        000000
__Ltext10                                                 text10       000000
__Ltext100                                                text100      000000
__Ltext101                                                text101      000000
__Ltext102                                                text102      000000
__Ltext103                                                text103      000000
__Ltext104                                                text104      000000
__Ltext105                                                text105      000000
__Ltext106                                                text106      000000
__Ltext107                                                text107      000000
__Ltext108                                                text108      000000
__Ltext109                                                text109      000000
__Ltext11                                                 text11       000000
__Ltext110                                                text110      000000
__Ltext111                                                text111      000000
__Ltext112                                                text112      000000
__Ltext113                                                text113      000000
__Ltext114                                                text114      000000
__Ltext115                                                text115      000000
__Ltext116                                                text116      000000
__Ltext117                                                text117      000000
__Ltext118                                                text118      000000
__Ltext119                                                text119      000000
__Ltext12                                                 text12       000000
__Ltext120                                                text120      000000
__Ltext121                                                text121      000000
__Ltext122                                                text122      000000
__Ltext123                                                text123      000000
__Ltext124                                                text124      000000
__Ltext125                                                text125      000000
__Ltext126                                                text126      000000
__Ltext127                                                text127      000000
__Ltext128                                                text128      000000
__Ltext129                                                text129      000000
__Ltext13                                                 text13       000000
__Ltext130                                                text130      000000
__Ltext131                                                text131      000000
__Ltext132                                                text132      000000
__Ltext133                                                text133      000000
__Ltext134                                                text134      000000
__Ltext135                                                text135      000000
__Ltext136                                                text136      000000
__Ltext137                                                text137      000000
__Ltext138                                                text138      000000
__Ltext139                                                text139      000000
__Ltext14                                                 text14       000000
__Ltext140                                                text140      000000
__Ltext141                                                text141      000000
__Ltext142                                                text142      000000
__Ltext143                                                text143      000000
__Ltext144                                                text144      000000
__Ltext145                                                text145      000000
__Ltext146                                                text146      000000
__Ltext147                                                text147      000000
__Ltext148                                                text148      000000
__Ltext149                                                text149      000000
__Ltext15                                                 text15       000000
__Ltext150                                                text150      000000
__Ltext151                                                text151      000000
__Ltext152                                                text152      000000
__Ltext153                                                text153      000000
__Ltext154                                                text154      000000
__Ltext155                                                text155      000000
__Ltext156                                                text156      000000
__Ltext157                                                text157      000000
__Ltext158                                                text158      000000
__Ltext159                                                text159      000000
__Ltext16                                                 text16       000000
__Ltext160                                                text160      000000
__Ltext161                                                text161      000000
__Ltext162                                                text162      000000
__Ltext163                                                text163      000000
__Ltext164                                                text164      000000
__Ltext165                                                text165      000000
__Ltext166                                                text166      000000
__Ltext167                                                text167      000000
__Ltext168                                                text168      000000
__Ltext169                                                text169      000000
__Ltext17                                                 text17       000000
__Ltext170                                                text170      000000
__Ltext171                                                text171      000000
__Ltext172                                                text172      000000
__Ltext173                                                text173      000000
__Ltext174                                                text174      000000
__Ltext175                                                text175      000000
__Ltext176                                                text176      000000
__Ltext177                                                text177      000000
__Ltext178                                                text178      000000
__Ltext179                                                text179      000000
__Ltext18                                                 text18       000000
__Ltext180                                                text180      000000
__Ltext181                                                text181      000000
__Ltext182                                                text182      000000
__Ltext183                                                text183      000000
__Ltext184                                                text184      000000
__Ltext185                                                text185      000000
__Ltext186                                                text186      000000
__Ltext187                                                text187      000000
__Ltext188                                                text188      000000
__Ltext189                                                text189      000000
__Ltext19                                                 text19       000000
__Ltext190                                                text190      000000
__Ltext191                                                text191      000000
__Ltext192                                                text192      000000
__Ltext193                                                text193      000000
__Ltext194                                                text194      000000
__Ltext195                                                text195      000000
__Ltext196                                                text196      000000
__Ltext197                                                text197      000000
__Ltext198                                                text198      000000
__Ltext199                                                text199      000000
__Ltext2                                                  text2        000000
__Ltext20                                                 text20       000000
__Ltext200                                                text200      000000
__Ltext201                                                text201      000000
__Ltext203                                                text203      000000
__Ltext204                                                text204      000000
__Ltext205                                                text205      000000
__Ltext206                                                text206      000000
__Ltext207                                                text207      000000
__Ltext208                                                text208      000000
__Ltext209                                                text209      000000
__Ltext21                                                 text21       000000
__Ltext210                                                text210      000000
__Ltext211                                                text211      000000
__Ltext212                                                text212      000000
__Ltext213                                                text213      000000
__Ltext214                                                text214      000000
__Ltext215                                                text215      000000
__Ltext216                                                text216      000000
__Ltext217                                                text217      000000
__Ltext218                                                text218      000000
__Ltext219                                                text219      000000
__Ltext22                                                 text22       000000
__Ltext220                                                text220      000000
__Ltext221                                                text221      000000
__Ltext222                                                text222      000000
__Ltext223                                                text223      000000
__Ltext224                                                text224      000000
__Ltext23                                                 text23       000000
__Ltext24                                                 text24       000000
__Ltext25                                                 text25       000000
__Ltext26                                                 text26       000000
__Ltext27                                                 text27       000000
__Ltext28                                                 text28       000000
__Ltext29                                                 text29       000000
__Ltext3                                                  text3        000000
__Ltext30                                                 text30       000000
__Ltext31                                                 text31       000000
__Ltext32                                                 text32       000000
__Ltext33                                                 text33       000000
__Ltext34                                                 text34       000000
__Ltext35                                                 text35       000000
__Ltext36                                                 text36       000000
__Ltext37                                                 text37       000000
__Ltext38                                                 text38       000000
__Ltext39                                                 text39       000000
__Ltext4                                                  text4        000000
__Ltext40                                                 text40       000000
__Ltext41                                                 text41       000000
__Ltext42                                                 text42       000000
__Ltext43                                                 text43       000000
__Ltext44                                                 text44       000000
__Ltext45                                                 text45       000000
__Ltext46                                                 text46       000000
__Ltext47                                                 text47       000000
__Ltext48                                                 text48       000000
__Ltext49                                                 text49       000000
__Ltext5                                                  text5        000000
__Ltext50                                                 text50       000000
__Ltext51                                                 text51       000000
__Ltext52                                                 text52       000000
__Ltext53                                                 text53       000000
__Ltext54                                                 text54       000000
__Ltext55                                                 text55       000000
__Ltext56                                                 text56       000000
__Ltext57                                                 text57       000000
__Ltext58                                                 text58       000000
__Ltext59                                                 text59       000000
__Ltext6                                                  text6        000000
__Ltext60                                                 text60       000000
__Ltext61                                                 text61       000000
__Ltext62                                                 text62       000000
__Ltext63                                                 text63       000000
__Ltext64                                                 text64       000000
__Ltext65                                                 text65       000000
__Ltext66                                                 text66       000000
__Ltext67                                                 text67       000000
__Ltext68                                                 text68       000000
__Ltext69                                                 text69       000000
__Ltext7                                                  text7        000000
__Ltext70                                                 text70       000000
__Ltext71                                                 text71       000000
__Ltext72                                                 text72       000000
__Ltext73                                                 text73       000000
__Ltext74                                                 text74       000000
__Ltext75                                                 text75       000000
__Ltext76                                                 text76       000000
__Ltext77                                                 text77       000000
__Ltext78                                                 text78       000000
__Ltext79                                                 text79       000000
__Ltext8                                                  text8        000000
__Ltext80                                                 text80       000000
__Ltext81                                                 text81       000000
__Ltext82                                                 text82       000000
__Ltext83                                                 text83       000000
__Ltext84                                                 text84       000000
__Ltext85                                                 text85       000000
__Ltext86                                                 text86       000000
__Ltext87                                                 text87       000000
__Ltext88                                                 text88       000000
__Ltext89                                                 text89       000000
__Ltext9                                                  text9        000000
__Ltext90                                                 text90       000000
__Ltext91                                                 text91       000000
__Ltext92                                                 text92       000000
__Ltext93                                                 text93       000000
__Ltext94                                                 text94       000000
__Ltext95                                                 text95       000000
__Ltext96                                                 text96       000000
__Ltext97                                                 text97       000000
__Ltext98                                                 text98       000000
__Ltext99                                                 text99       000000
__S0                                                      (abs)        30000E
__S1                                                      (abs)        0006FE
__S2                                                      (abs)        000F38
___abdiv                                                  text59       007866
___abdiv@counter                                          cstackBANK0  000063
___abdiv@dividend                                         cstackBANK0  000066
___abdiv@divisor                                          cstackBANK0  000060
___abdiv@quotient                                         cstackBANK0  000065
___abdiv@sign                                             cstackBANK0  000064
___awdiv                                                  text105      00725C
___awdiv@counter                                          cstackBANK0  000064
___awdiv@dividend                                         cstackBANK0  000060
___awdiv@divisor                                          cstackBANK0  000062
___awdiv@quotient                                         cstackBANK0  000066
___awdiv@sign                                             cstackBANK0  000065
___inthi_sp                                               stack        0009BC
___intlo_sp                                               stack        000C7A
___lldiv                                                  text186      007368
___lldiv@counter                                          cstackBANK0  00006C
___lldiv@dividend                                         cstackBANK0  000060
___lldiv@divisor                                          cstackBANK0  000064
___lldiv@quotient                                         cstackBANK0  000068
___llmod                                                  text173      0077FE
___llmod@counter                                          cstackBANK0  000068
___llmod@dividend                                         cstackBANK0  000060
___llmod@divisor                                          cstackBANK0  000064
___lmul                                                   text185      007CE4
___lmul@multiplicand                                      cstackBANK0  00009E
___lmul@multiplier                                        cstackBANK0  00009A
___lmul@product                                           cstackBANK0  0000A2
___lwmod                                                  text150      0081BE
___lwmod@counter                                          cstackBANK0  0000AC
___lwmod@dividend                                         cstackBANK0  0000A8
___lwmod@divisor                                          cstackBANK0  0000AA
___param_bank                                             (abs)        000000
___rparam_used                                            (abs)        000001
___sp                                                     stack        0006FE
___wmul                                                   text73       0087A2
___wmul@multiplicand                                      cstackBANK0  000062
___wmul@multiplier                                        cstackBANK0  000060
___wmul@product                                           cstackBANK0  000064
__accesstop                                               (abs)        000060
__activetblptr                                            (abs)        000003
__end_of_ADC_Initialize                                   text31       008B48
__end_of_AESCmac                                          text152      00259A
__end_of_AESEncode                                        text156      002C48
__end_of_AESEncodeLoRa                                    text155      008440
__end_of_AckRetransmissionCallback                        text40       005C18
__end_of_AssembleEncryptionBlock                          text106      006106
__end_of_AssemblePacket                                   text100      0021F0
__end_of_AutomaticReplyCallback                           text39       008840
__end_of_CCP5_Initialize                                  text30       008C20
__end_of_CheckFlags                                       text112      007BD4
__end_of_CheckMcastFlags                                  text111      00746E
__end_of_ComputeMic                                       text151      007994
__end_of_ComputeSessionKeys                               text109      007368
__end_of_ConfigureRadio                                   text135      006D2E
__end_of_ConfigureRadioRx                                 text125      008752
__end_of_ConfigureRadioTx                                 text131      007EE2
__end_of_CountfOptsLength                                 text107      0069B4
__end_of_CreateAllSoftwareTimers                          text200      007F86
__end_of_DIO0_ISR_Lora                                    text222      008D88
__end_of_DIO0_ISR_Lora_Init                               text21       008C10
__end_of_DIO1_ISR_Lora                                    text218      008D82
__end_of_DIO1_ISR_Lora_Init                               text20       008C00
__end_of_DIO2_ISR_Lora                                    text214      008D7C
__end_of_DIO2_ISR_Lora_Init                               text18       008BF0
__end_of_DIO3_ISR_Lora_Init                               text17       008DA6
__end_of_DIO4_ISR_Lora_Init                               text16       008DA4
__end_of_DIO5_ISR_Lora_Init                               text15       008DA2
__end_of_DefaultChannels433                               mediumconst  00FFB4
__end_of_DefaultChannels868                               mediumconst  00FFDE
__end_of_DutyCycleCallback                                text37       002F4E
__end_of_EUSART1_Initialize                               text26       008064
__end_of_EUSART1_SetErrorHandler                          text29       008CD4
__end_of_EUSART1_SetFramingErrorHandler                   text28       008CCA
__end_of_EUSART1_SetOverrunErrorHandler                   text27       008CC0
__end_of_EUSART1_Write                                    text3        008C4C
__end_of_EXT_INT_Initialize                               text23       0086D4
__end_of_EnableChannels                                   text93       008A82
__end_of_EnableChannels1                                  text94       0076C0
__end_of_EncKeySchedule                                   text158      0037B0
__end_of_EncodeShiftRow                                   text157      005246
__end_of_EncryptFRMPayload                                text104      004462
__end_of_ExecuteDevStatus                                 text97       008CF2
__end_of_ExecuteDutyCycle                                 text96       007E90
__end_of_ExecuteLinkAdr                                   text86       00350C
__end_of_ExecuteLinkCheck                                 text85       0084D6
__end_of_ExecuteNewChannel                                text77       003A20
__end_of_ExecuteRxParamSetupReq                           text74       00409C
__end_of_ExecuteRxTimingSetup                             text71       0087A2
__end_of_ExtractMic                                       text108      007CE4
__end_of_FillSubKey                                       text154      0079F6
__end_of_FindSmallestDataRate                             text103      00658E
__end_of_FskSyncWordBuff                                  mediumconst  00FFE1
__end_of_GenerateSubkey                                   text153      00563E
__end_of_GetRx1Freq                                       text47       008BAC
__end_of_HALDIO5PinValue                                  text171      008C8E
__end_of_HALResetPinMakeInput                             text183      008DA0
__end_of_HALResetPinMakeOutput                            text182      008D9C
__end_of_HALResetPinOutputValue                           text181      008AD2
__end_of_HALSPICSAssert                                   text178      008D98
__end_of_HALSPICSDeassert                                 text177      008D94
__end_of_HALSPISend                                       text175      008C76
__end_of_INT1_CallBack                                    text221      008A2C
__end_of_INT1_DefaultInterruptHandler                     text223      008DB2
__end_of_INT1_ISR                                         text220      008D64
__end_of_INT1_SetInterruptHandler                         text25       008CB6
__end_of_INT2_CallBack                                    text217      008A0C
__end_of_INT2_DefaultInterruptHandler                     text219      008DB0
__end_of_INT2_ISR                                         text216      008D5C
__end_of_INT2_SetInterruptHandler                         text24       008CAC
__end_of_INTERRUPT_GetDioStatus                           text126      008B86
__end_of_INTERRUPT_Initialize                             text22       008D90
__end_of_INTERRUPT_InterruptManager                       intcode      00007E
__end_of_IOCB4_DefaultInterruptHandler                    text215      008DAE
__end_of_IOCB4_ISR                                        text213      0089EC
__end_of_IOCB4_SetInterruptHandler                        text19       008CA2
__end_of_IncludeMacCommandsResponse                       text101      001E40
__end_of_InitDefault433Channels                           text197      00725C
__end_of_InitDefault868Channels                           text196      0071D2
__end_of_LORAWAN_EnterContinuousReceive                   text118      00756A
__end_of_LORAWAN_GetMaxPayloadSize                        text99       007AB8
__end_of_LORAWAN_Init                                     text159      007A58
__end_of_LORAWAN_Join                                     text127      006DD2
__end_of_LORAWAN_LinkCheckCallback                        text41       004E10
__end_of_LORAWAN_LinkCheckConfigure                       text184      0053A4
__end_of_LORAWAN_Mainloop                                 text35       0083CE
__end_of_LORAWAN_PlatformInit                             text11       008886
__end_of_LORAWAN_ReceiveWindow1Callback                   text42       006B26
__end_of_LORAWAN_ReceiveWindow2Callback                   text43       006744
__end_of_LORAWAN_Reset                                    text163      004630
__end_of_LORAWAN_RxDone                                   text62       000D2C
__end_of_LORAWAN_RxTimeout                                text61       0028FE
__end_of_LORAWAN_Send                                     text98       0068EA
__end_of_LORAWAN_SetApplicationSessionKey                 text34       008650
__end_of_LORAWAN_SetChannelIdStatus                       text83       007C8A
__end_of_LORAWAN_SetDeviceAddress                         text33       008B02
__end_of_LORAWAN_SetNetworkSessionKey                     text32       008622
__end_of_LORAWAN_TxDone                                   text114      0014DE
__end_of_MacExecuteCommands                               text70       003244
__end_of_OSCILLATOR_Initialize                            text10       008C68
__end_of_PIN_MANAGER_IOC                                  text212      008D4C
__end_of_PIN_MANAGER_Initialize                           text9        007E3C
__end_of_PrepareJoinRequestFrame                          text147      004B22
__end_of_PrepareSessionKeys                               text110      006C86
__end_of_RADIO_DIO0                                       text55       007032
__end_of_RADIO_DIO1                                       text52       007FD4
__end_of_RADIO_DIO2                                       text51       007D92
__end_of_RADIO_DIO3                                       text50       0088A8
__end_of_RADIO_DIO4                                       text49       008472
__end_of_RADIO_DIO5                                       text48       00877A
__end_of_RADIO_FHSSChangeChannel                          text54       008350
__end_of_RADIO_FSKPacketSent                              text113      0058AA
__end_of_RADIO_FSKPayloadReady                            text60       006BDA
__end_of_RADIO_GetPacketSnr                               text102      008D6A
__end_of_RADIO_GetStatus                                  text117      008D70
__end_of_RADIO_Init                                       text167      0047FA
__end_of_RADIO_ReadRandom                                 text162      006E76
__end_of_RADIO_ReceiveStart                               text124      003E88
__end_of_RADIO_ReceiveStop                                text123      00894C
__end_of_RADIO_RegisterRead                               text170      0087F2
__end_of_RADIO_RegisterWrite                              text174      00896C
__end_of_RADIO_ReleaseData                                text122      008D76
__end_of_RADIO_Reset                                      text179      008136
__end_of_RADIO_RxDone                                     text58       0064B0
__end_of_RADIO_RxFSKTimeout                               text45       00840A
__end_of_RADIO_RxTimeout                                  text53       00867E
__end_of_RADIO_SetBandwidth                               text141      008D38
__end_of_RADIO_SetCRC                                     text134      008D10
__end_of_RADIO_SetChannelFrequency                        text140      007148
__end_of_RADIO_SetFSKSyncWord                             text139      008566
__end_of_RADIO_SetFrequencyHopPeriod                      text138      008D2E
__end_of_RADIO_SetIQInverted                              text133      008D06
__end_of_RADIO_SetLoRaSyncWord                            text166      008D42
__end_of_RADIO_SetModulation                              text137      008D24
__end_of_RADIO_SetOutputPower                             text132      008CFC
__end_of_RADIO_SetSpreadingFactor                         text136      008D1A
__end_of_RADIO_Transmit                                   text142      003C58
__end_of_RADIO_TxDone                                     text57       005AFA
__end_of_RADIO_UnhandledInterrupt                         text56       0084A4
__end_of_RADIO_WatchdogTimeout                            text44       0080AA
__end_of_RADIO_WriteConfiguration                         text143      0019DE
__end_of_RADIO_WriteFSKBitRate                            text146      0077FE
__end_of_RADIO_WriteFSKFrequencyDeviation                 text145      007796
__end_of_RADIO_WriteFrequency                             text172      0062E6
__end_of_RADIO_WriteMode                                  text169      005F18
__end_of_RADIO_WritePower                                 text144      0061F6
__end_of_Random                                           text148      0088CA
__end_of_ResetParametersForConfirmedTransmission          text121      008BBE
__end_of_ResetParametersForUnconfirmedTransmission        text120      008B72
__end_of_RxData                                           text119      008DAA
__end_of_RxJoinResponse                                   text69       008DA8
__end_of_SPI2_Exchange8bit                                text176      008BD0
__end_of_SPI2_Initialize                                  text8        008C5A
__end_of_STable                                           mediumconst  00FF49
__end_of_SYSTEM_Initialize                                text5        0085F4
__end_of_SearchAvailableChannel                           text130      0059D4
__end_of_SelectChannelForTransmission                     text129      00772C
__end_of_SetCallbackSoftwareTimers                        text161      00666C
__end_of_SetJoinFailState                                 text68       008536
__end_of_SetReceptionNotOkState                           text67       0074EC
__end_of_StartReTxTimer                                   text66       004CA4
__end_of_StopAllSoftwareTimers                            text165      007F34
__end_of_SwTimerCreate                                    text201      0070BE
__end_of_SwTimerIsRunning                                 text116      008728
__end_of_SwTimerReadValue                                 text115      008390
__end_of_SwTimerSetCallback                               text168      008246
__end_of_SwTimerSetTimeout                                text195      00828A
__end_of_SwTimerStart                                     text188      006F0C
__end_of_SwTimerStop                                      text187      00881A
__end_of_SwTimersExecute                                  text36       0063CC
__end_of_SwTimersInterrupt                                text192      005D1A
__end_of_SystemBlockingWaitMs                             text180      008596
__end_of_SystemTimerInit                                  text14       008D54
__end_of_TMR1_CallBack                                    text204      0089AC
__end_of_TMR1_DefaultInterruptHandler                     text205      008DAC
__end_of_TMR1_ISR                                         text203      008B9A
__end_of_TMR1_Initialize                                  text7        0086AA
__end_of_TMR1_ReadTimer                                   text194      0088EC
__end_of_TMR1_SetInterruptHandler                         text13       008C98
__end_of_TMR1_WriteTimer                                  text191      00898C
__end_of_TMR5_HasOverflowOccured                          text4        008C82
__end_of_TMR5_Initialize                                  text6        008A4A
__end_of_TMR_GetDeltaTime                                 text193      004992
__end_of_TMR_ISR_Lora_Init                                text12       008BE0
__end_of_TMR_ISR_lora                                     text206      007DE8
__end_of_TMR_OverrideRemaining                            text189      006FA2
__end_of_TMR_SwapTimer                                    text190      00801E
__end_of_UnconfirmedTransmissionCallback                  text46       0075E2
__end_of_UpdateCfList                                     text65       00428A
__end_of_UpdateChannelIdStatus                            text95       0050E2
__end_of_UpdateCurrentDataRate                            text92       008CE8
__end_of_UpdateDLSettings                                 text64       008A66
__end_of_UpdateDataRange                                  text82       0054F2
__end_of_UpdateDutyCycle                                  text81       0081BE
__end_of_UpdateFrequency                                  text80       00817A
__end_of_UpdateJoinInProgress                             text128      008AB8
__end_of_UpdateJoinSuccessState                           text38       00577C
__end_of_UpdateMinMaxChDataRate                           text164      006012
__end_of_UpdateReceiveDelays                              text72       008310
__end_of_UpdateReceiveWindow2Parameters                   text76       008B5E
__end_of_UpdateRetransmissionAckTimeoutState              text63       007654
__end_of_UpdateTxPower                                    text91       008CDE
__end_of_ValidateChannelId                                text84       008864
__end_of_ValidateChannelMask                              text90       007B76
__end_of_ValidateChannelMaskCntl                          text89       00892C
__end_of_ValidateDataRange                                text79       0080F0
__end_of_ValidateDataRate                                 text88       008B32
__end_of_ValidateFrequency                                text78       007932
__end_of_ValidateRxOffset                                 text75       008B1A
__end_of_ValidateTxPower                                  text87       0086FE
__end_of___abdiv                                          text59       0078CC
__end_of___awdiv                                          text105      0072E2
__end_of___lldiv                                          text186      0073EC
__end_of___llmod                                          text173      007866
__end_of___lmul                                           text185      007D3C
__end_of___lwmod                                          text150      008202
__end_of___wmul                                           text73       0087CA
__end_of__initialization                                  cinit        006A68
__end_of_bandwidth                                        mediumconst  00FF77
__end_of_macEndDevCmdReplyLen                             mediumconst  00FF70
__end_of_main                                             text0        006818
__end_of_maxPayloadSize                                   mediumconst  00FF61
__end_of_memcpy                                           text199      007B18
__end_of_memset                                           text198      0085C6
__end_of_modulation                                       mediumconst  00FF51
__end_of_printf                                           text1        008506
__end_of_putch                                            text2        008C3E
__end_of_rand                                             text149      007C30
__end_of_rxWindowOffset                                   mediumconst  00FF59
__end_of_rxWindowSize                                     mediumconst  00FF69
__end_of_spreadingFactor                                  mediumconst  00FF7E
__end_of_srand                                            text160      008C30
__end_of_txPower433                                       mediumconst  00FF84
__end_of_txPower868                                       mediumconst  00FF8A
__end_ofi2_SwTimersInterrupt                              text209      005E1A
__end_ofi2_TMR1_ReadTimer                                 text211      0089CC
__end_ofi2_TMR1_WriteTimer                                text208      008A9E
__end_ofi2_TMR_GetDeltaTime                               text210      004F7C
__end_ofi2_TMR_SwapTimer                                  text207      0082CE
__initialization                                          cinit        0069B4
__mediumconst                                             mediumconst  00FE48
__pbssBANK0                                               bssBANK0     0000FB
__pbssBANK1                                               bssBANK1     000100
__pbssBANK2                                               bssBANK2     000200
__pbssBANK3                                               bssBANK3     000300
__pbssBANK4                                               bssBANK4     000400
__pbssBIGRAM                                              bssBIGRAM    0004E0
__pbssCOMRAM                                              bssCOMRAM    00003C
__pcinit                                                  cinit        0069B4
__pcstackBANK0                                            cstackBANK0  000060
__pcstackBANK1                                            cstackBANK1  00016A
__pcstackCOMRAM                                           cstackCOMRAM 000001
__pdataBANK1                                              dataBANK1    0001D3
__pdataBANK3                                              dataBANK3    0003A0
__pdataCOMRAM                                             dataCOMRAM   000054
__pidataBANK1                                             idataBANK1   008AD2
__pidataBANK3                                             idataBANK3   0088EC
__pidataCOMRAM                                            idataCOMRAM  008D88
__pintcode                                                intcode      000008
__pmediumconst                                            mediumconst  00FE48
__pnvBANK1                                                nvBANK1      0001EB
__pnvBANK2                                                nvBANK2      0002F5
__ptext0                                                  text0        006744
__ptext1                                                  text1        0084D6
__ptext10                                                 text10       008C5A
__ptext100                                                text100      001E40
__ptext101                                                text101      0019DE
__ptext102                                                text102      008D64
__ptext103                                                text103      0064B0
__ptext104                                                text104      00428A
__ptext105                                                text105      00725C
__ptext106                                                text106      006012
__ptext107                                                text107      0068EA
__ptext108                                                text108      007C8A
__ptext109                                                text109      0072E2
__ptext11                                                 text11       008864
__ptext110                                                text110      006BDA
__ptext111                                                text111      0073EC
__ptext112                                                text112      007B76
__ptext113                                                text113      00577C
__ptext114                                                text114      000D2C
__ptext115                                                text115      008350
__ptext116                                                text116      0086FE
__ptext117                                                text117      008D6A
__ptext118                                                text118      0074EC
__ptext119                                                text119      008DA8
__ptext12                                                 text12       008BD0
__ptext120                                                text120      008B5E
__ptext121                                                text121      008BAC
__ptext122                                                text122      008D70
__ptext123                                                text123      00892C
__ptext124                                                text124      003C58
__ptext125                                                text125      008728
__ptext126                                                text126      008B72
__ptext127                                                text127      006D2E
__ptext128                                                text128      008A9E
__ptext129                                                text129      0076C0
__ptext13                                                 text13       008C8E
__ptext130                                                text130      0058AA
__ptext131                                                text131      007E90
__ptext132                                                text132      008CF2
__ptext133                                                text133      008CFC
__ptext134                                                text134      008D06
__ptext135                                                text135      006C86
__ptext136                                                text136      008D10
__ptext137                                                text137      008D1A
__ptext138                                                text138      008D24
__ptext139                                                text139      008536
__ptext14                                                 text14       008D4C
__ptext140                                                text140      0070BE
__ptext141                                                text141      008D2E
__ptext142                                                text142      003A20
__ptext143                                                text143      0014DE
__ptext144                                                text144      006106
__ptext145                                                text145      00772C
__ptext146                                                text146      007796
__ptext147                                                text147      004992
__ptext148                                                text148      0088A8
__ptext149                                                text149      007BD4
__ptext15                                                 text15       008DA0
__ptext150                                                text150      0081BE
__ptext151                                                text151      007932
__ptext152                                                text152      0021F0
__ptext153                                                text153      0054F2
__ptext154                                                text154      007994
__ptext155                                                text155      00840A
__ptext156                                                text156      0028FE
__ptext157                                                text157      0050E2
__ptext158                                                text158      00350C
__ptext159                                                text159      0079F6
__ptext16                                                 text16       008DA2
__ptext160                                                text160      008C20
__ptext161                                                text161      00658E
__ptext162                                                text162      006DD2
__ptext163                                                text163      004462
__ptext164                                                text164      005F18
__ptext165                                                text165      007EE2
__ptext166                                                text166      008D38
__ptext167                                                text167      004630
__ptext168                                                text168      008202
__ptext169                                                text169      005E1A
__ptext17                                                 text17       008DA4
__ptext170                                                text170      0087CA
__ptext171                                                text171      008C82
__ptext172                                                text172      0061F6
__ptext173                                                text173      0077FE
__ptext174                                                text174      00894C
__ptext175                                                text175      008C68
__ptext176                                                text176      008BBE
__ptext177                                                text177      008D90
__ptext178                                                text178      008D94
__ptext179                                                text179      0080F0
__ptext18                                                 text18       008BE0
__ptext180                                                text180      008566
__ptext181                                                text181      008AB8
__ptext182                                                text182      008D98
__ptext183                                                text183      008D9C
__ptext184                                                text184      005246
__ptext185                                                text185      007CE4
__ptext186                                                text186      007368
__ptext187                                                text187      0087F2
__ptext188                                                text188      006E76
__ptext189                                                text189      006F0C
__ptext19                                                 text19       008C98
__ptext190                                                text190      007FD4
__ptext191                                                text191      00896C
__ptext192                                                text192      005C18
__ptext193                                                text193      0047FA
__ptext194                                                text194      0088CA
__ptext195                                                text195      008246
__ptext196                                                text196      007148
__ptext197                                                text197      0071D2
__ptext198                                                text198      008596
__ptext199                                                text199      007AB8
__ptext2                                                  text2        008C30
__ptext20                                                 text20       008BF0
__ptext200                                                text200      007F34
__ptext201                                                text201      007032
__ptext203                                                text203      008B86
__ptext204                                                text204      00898C
__ptext205                                                text205      008DAA
__ptext206                                                text206      007D92
__ptext207                                                text207      00828A
__ptext208                                                text208      008A82
__ptext209                                                text209      005D1A
__ptext21                                                 text21       008C00
__ptext210                                                text210      004E10
__ptext211                                                text211      0089AC
__ptext212                                                text212      008D42
__ptext213                                                text213      0089CC
__ptext214                                                text214      008D76
__ptext215                                                text215      008DAC
__ptext216                                                text216      008D54
__ptext217                                                text217      0089EC
__ptext218                                                text218      008D7C
__ptext219                                                text219      008DAE
__ptext22                                                 text22       008D8C
__ptext220                                                text220      008D5C
__ptext221                                                text221      008A0C
__ptext222                                                text222      008D82
__ptext223                                                text223      008DB0
__ptext224                                                text224      000000
__ptext23                                                 text23       0086AA
__ptext24                                                 text24       008CA2
__ptext25                                                 text25       008CAC
__ptext26                                                 text26       00801E
__ptext27                                                 text27       008CB6
__ptext28                                                 text28       008CC0
__ptext29                                                 text29       008CCA
__ptext3                                                  text3        008C3E
__ptext30                                                 text30       008C10
__ptext31                                                 text31       008B32
__ptext32                                                 text32       0085F4
__ptext33                                                 text33       008AEA
__ptext34                                                 text34       008622
__ptext35                                                 text35       008390
__ptext36                                                 text36       0062E6
__ptext37                                                 text37       002C48
__ptext38                                                 text38       00563E
__ptext39                                                 text39       00881A
__ptext4                                                  text4        008C76
__ptext40                                                 text40       005AFA
__ptext41                                                 text41       004CA4
__ptext42                                                 text42       006A6E
__ptext43                                                 text43       00666C
__ptext44                                                 text44       008064
__ptext45                                                 text45       0083CE
__ptext46                                                 text46       00756A
__ptext47                                                 text47       008B9A
__ptext48                                                 text48       008752
__ptext49                                                 text49       008440
__ptext5                                                  text5        0085C6
__ptext50                                                 text50       008886
__ptext51                                                 text51       007D3C
__ptext52                                                 text52       007F86
__ptext53                                                 text53       008650
__ptext54                                                 text54       008310
__ptext55                                                 text55       006FA2
__ptext56                                                 text56       008472
__ptext57                                                 text57       0059D4
__ptext58                                                 text58       0063CC
__ptext59                                                 text59       007866
__ptext6                                                  text6        008A2C
__ptext60                                                 text60       006B26
__ptext61                                                 text61       00259A
__ptext62                                                 text62       000086
__ptext63                                                 text63       0075E2
__ptext64                                                 text64       008A4A
__ptext65                                                 text65       00409C
__ptext66                                                 text66       004B22
__ptext67                                                 text67       00746E
__ptext68                                                 text68       008506
__ptext69                                                 text69       008DA6
__ptext7                                                  text7        00867E
__ptext70                                                 text70       002F4E
__ptext71                                                 text71       00877A
__ptext72                                                 text72       0082CE
__ptext73                                                 text73       0087A2
__ptext74                                                 text74       003E88
__ptext75                                                 text75       008B02
__ptext76                                                 text76       008B48
__ptext77                                                 text77       0037B0
__ptext78                                                 text78       0078CC
__ptext79                                                 text79       0080AA
__ptext8                                                  text8        008C4C
__ptext80                                                 text80       008136
__ptext81                                                 text81       00817A
__ptext82                                                 text82       0053A4
__ptext83                                                 text83       007C30
__ptext84                                                 text84       008840
__ptext85                                                 text85       0084A4
__ptext86                                                 text86       003244
__ptext87                                                 text87       0086D4
__ptext88                                                 text88       008B1A
__ptext89                                                 text89       00890C
__ptext9                                                  text9        007DE8
__ptext90                                                 text90       007B18
__ptext91                                                 text91       008CD4
__ptext92                                                 text92       008CDE
__ptext93                                                 text93       008A66
__ptext94                                                 text94       007654
__ptext95                                                 text95       004F7C
__ptext96                                                 text96       007E3C
__ptext97                                                 text97       008CE8
__ptext98                                                 text98       006818
__ptext99                                                 text99       007A58
__ramtop                                                  ramtop       001000
__rcon                                                    bssCOMRAM    000046
__roundCounter                                            bssBANK1     000122
__size_of_ADC_Initialize                                  (abs)        000000
__size_of_AESCmac                                         (abs)        000000
__size_of_AESEncode                                       (abs)        000000
__size_of_AESEncodeLoRa                                   (abs)        000000
__size_of_AckRetransmissionCallback                       (abs)        000000
__size_of_AssembleEncryptionBlock                         (abs)        000000
__size_of_AssemblePacket                                  (abs)        000000
__size_of_AutomaticReplyCallback                          (abs)        000000
__size_of_CCP5_Initialize                                 (abs)        000000
__size_of_CheckFlags                                      (abs)        000000
__size_of_CheckMcastFlags                                 (abs)        000000
__size_of_ComputeMic                                      (abs)        000000
__size_of_ComputeSessionKeys                              (abs)        000000
__size_of_ConfigureRadio                                  (abs)        000000
__size_of_ConfigureRadioRx                                (abs)        000000
__size_of_ConfigureRadioTx                                (abs)        000000
__size_of_CountfOptsLength                                (abs)        000000
__size_of_CreateAllSoftwareTimers                         (abs)        000000
__size_of_DIO0_ISR_Lora                                   (abs)        000000
__size_of_DIO0_ISR_Lora_Init                              (abs)        000000
__size_of_DIO1_ISR_Lora                                   (abs)        000000
__size_of_DIO1_ISR_Lora_Init                              (abs)        000000
__size_of_DIO2_ISR_Lora                                   (abs)        000000
__size_of_DIO2_ISR_Lora_Init                              (abs)        000000
__size_of_DIO3_ISR_Lora_Init                              (abs)        000000
__size_of_DIO4_ISR_Lora_Init                              (abs)        000000
__size_of_DIO5_ISR_Lora_Init                              (abs)        000000
__size_of_DutyCycleCallback                               (abs)        000000
__size_of_EUSART1_Initialize                              (abs)        000000
__size_of_EUSART1_SetErrorHandler                         (abs)        000000
__size_of_EUSART1_SetFramingErrorHandler                  (abs)        000000
__size_of_EUSART1_SetOverrunErrorHandler                  (abs)        000000
__size_of_EUSART1_Write                                   (abs)        000000
__size_of_EXT_INT_Initialize                              (abs)        000000
__size_of_EnableChannels                                  (abs)        000000
__size_of_EnableChannels1                                 (abs)        000000
__size_of_EncKeySchedule                                  (abs)        000000
__size_of_EncodeShiftRow                                  (abs)        000000
__size_of_EncryptFRMPayload                               (abs)        000000
__size_of_ExecuteDevStatus                                (abs)        000000
__size_of_ExecuteDutyCycle                                (abs)        000000
__size_of_ExecuteLinkAdr                                  (abs)        000000
__size_of_ExecuteLinkCheck                                (abs)        000000
__size_of_ExecuteNewChannel                               (abs)        000000
__size_of_ExecuteRxParamSetupReq                          (abs)        000000
__size_of_ExecuteRxTimingSetup                            (abs)        000000
__size_of_ExtractMic                                      (abs)        000000
__size_of_FillSubKey                                      (abs)        000000
__size_of_FindSmallestDataRate                            (abs)        000000
__size_of_GenerateSubkey                                  (abs)        000000
__size_of_GetRx1Freq                                      (abs)        000000
__size_of_HALDIO5PinValue                                 (abs)        000000
__size_of_HALResetPinMakeInput                            (abs)        000000
__size_of_HALResetPinMakeOutput                           (abs)        000000
__size_of_HALResetPinOutputValue                          (abs)        000000
__size_of_HALSPICSAssert                                  (abs)        000000
__size_of_HALSPICSDeassert                                (abs)        000000
__size_of_HALSPISend                                      (abs)        000000
__size_of_INT1_CallBack                                   (abs)        000000
__size_of_INT1_DefaultInterruptHandler                    (abs)        000000
__size_of_INT1_ISR                                        (abs)        000000
__size_of_INT1_SetInterruptHandler                        (abs)        000000
__size_of_INT2_CallBack                                   (abs)        000000
__size_of_INT2_DefaultInterruptHandler                    (abs)        000000
__size_of_INT2_ISR                                        (abs)        000000
__size_of_INT2_SetInterruptHandler                        (abs)        000000
__size_of_INTERRUPT_GetDioStatus                          (abs)        000000
__size_of_INTERRUPT_Initialize                            (abs)        000000
__size_of_INTERRUPT_InterruptManager                      (abs)        000000
__size_of_IOCB4_DefaultInterruptHandler                   (abs)        000000
__size_of_IOCB4_ISR                                       (abs)        000000
__size_of_IOCB4_SetInterruptHandler                       (abs)        000000
__size_of_IncludeMacCommandsResponse                      (abs)        000000
__size_of_InitDefault433Channels                          (abs)        000000
__size_of_InitDefault868Channels                          (abs)        000000
__size_of_LORAWAN_EnterContinuousReceive                  (abs)        000000
__size_of_LORAWAN_GetMaxPayloadSize                       (abs)        000000
__size_of_LORAWAN_Init                                    (abs)        000000
__size_of_LORAWAN_Join                                    (abs)        000000
__size_of_LORAWAN_LinkCheckCallback                       (abs)        000000
__size_of_LORAWAN_LinkCheckConfigure                      (abs)        000000
__size_of_LORAWAN_Mainloop                                (abs)        000000
__size_of_LORAWAN_PlatformInit                            (abs)        000000
__size_of_LORAWAN_ReceiveWindow1Callback                  (abs)        000000
__size_of_LORAWAN_ReceiveWindow2Callback                  (abs)        000000
__size_of_LORAWAN_Reset                                   (abs)        000000
__size_of_LORAWAN_RxDone                                  (abs)        000000
__size_of_LORAWAN_RxTimeout                               (abs)        000000
__size_of_LORAWAN_Send                                    (abs)        000000
__size_of_LORAWAN_SetApplicationSessionKey                (abs)        000000
__size_of_LORAWAN_SetChannelIdStatus                      (abs)        000000
__size_of_LORAWAN_SetDeviceAddress                        (abs)        000000
__size_of_LORAWAN_SetNetworkSessionKey                    (abs)        000000
__size_of_LORAWAN_TxDone                                  (abs)        000000
__size_of_MacExecuteCommands                              (abs)        000000
__size_of_OSCILLATOR_Initialize                           (abs)        000000
__size_of_PIN_MANAGER_IOC                                 (abs)        000000
__size_of_PIN_MANAGER_Initialize                          (abs)        000000
__size_of_PrepareJoinRequestFrame                         (abs)        000000
__size_of_PrepareSessionKeys                              (abs)        000000
__size_of_RADIO_DIO0                                      (abs)        000000
__size_of_RADIO_DIO1                                      (abs)        000000
__size_of_RADIO_DIO2                                      (abs)        000000
__size_of_RADIO_DIO3                                      (abs)        000000
__size_of_RADIO_DIO4                                      (abs)        000000
__size_of_RADIO_DIO5                                      (abs)        000000
__size_of_RADIO_FHSSChangeChannel                         (abs)        000000
__size_of_RADIO_FSKPacketSent                             (abs)        000000
__size_of_RADIO_FSKPayloadReady                           (abs)        000000
__size_of_RADIO_GetPacketSnr                              (abs)        000000
__size_of_RADIO_GetStatus                                 (abs)        000000
__size_of_RADIO_Init                                      (abs)        000000
__size_of_RADIO_ReadRandom                                (abs)        000000
__size_of_RADIO_ReceiveStart                              (abs)        000000
__size_of_RADIO_ReceiveStop                               (abs)        000000
__size_of_RADIO_RegisterRead                              (abs)        000000
__size_of_RADIO_RegisterWrite                             (abs)        000000
__size_of_RADIO_ReleaseData                               (abs)        000000
__size_of_RADIO_Reset                                     (abs)        000000
__size_of_RADIO_RxDone                                    (abs)        000000
__size_of_RADIO_RxFSKTimeout                              (abs)        000000
__size_of_RADIO_RxTimeout                                 (abs)        000000
__size_of_RADIO_SetBandwidth                              (abs)        000000
__size_of_RADIO_SetCRC                                    (abs)        000000
__size_of_RADIO_SetChannelFrequency                       (abs)        000000
__size_of_RADIO_SetFSKSyncWord                            (abs)        000000
__size_of_RADIO_SetFrequencyHopPeriod                     (abs)        000000
__size_of_RADIO_SetIQInverted                             (abs)        000000
__size_of_RADIO_SetLoRaSyncWord                           (abs)        000000
__size_of_RADIO_SetModulation                             (abs)        000000
__size_of_RADIO_SetOutputPower                            (abs)        000000
__size_of_RADIO_SetSpreadingFactor                        (abs)        000000
__size_of_RADIO_Transmit                                  (abs)        000000
__size_of_RADIO_TxDone                                    (abs)        000000
__size_of_RADIO_UnhandledInterrupt                        (abs)        000000
__size_of_RADIO_WatchdogTimeout                           (abs)        000000
__size_of_RADIO_WriteConfiguration                        (abs)        000000
__size_of_RADIO_WriteFSKBitRate                           (abs)        000000
__size_of_RADIO_WriteFSKFrequencyDeviation                (abs)        000000
__size_of_RADIO_WriteFrequency                            (abs)        000000
__size_of_RADIO_WriteMode                                 (abs)        000000
__size_of_RADIO_WritePower                                (abs)        000000
__size_of_Random                                          (abs)        000000
__size_of_ResetParametersForConfirmedTransmission         (abs)        000000
__size_of_ResetParametersForUnconfirmedTransmission       (abs)        000000
__size_of_RxData                                          (abs)        000000
__size_of_RxJoinResponse                                  (abs)        000000
__size_of_SPI2_Exchange8bit                               (abs)        000000
__size_of_SPI2_Initialize                                 (abs)        000000
__size_of_SYSTEM_Initialize                               (abs)        000000
__size_of_SearchAvailableChannel                          (abs)        000000
__size_of_SelectChannelForTransmission                    (abs)        000000
__size_of_SetCallbackSoftwareTimers                       (abs)        000000
__size_of_SetJoinFailState                                (abs)        000000
__size_of_SetReceptionNotOkState                          (abs)        000000
__size_of_StartReTxTimer                                  (abs)        000000
__size_of_StopAllSoftwareTimers                           (abs)        000000
__size_of_SwTimerCreate                                   (abs)        000000
__size_of_SwTimerIsRunning                                (abs)        000000
__size_of_SwTimerReadValue                                (abs)        000000
__size_of_SwTimerSetCallback                              (abs)        000000
__size_of_SwTimerSetTimeout                               (abs)        000000
__size_of_SwTimerStart                                    (abs)        000000
__size_of_SwTimerStop                                     (abs)        000000
__size_of_SwTimersExecute                                 (abs)        000000
__size_of_SwTimersInterrupt                               (abs)        000000
__size_of_SystemBlockingWaitMs                            (abs)        000000
__size_of_SystemTimerInit                                 (abs)        000000
__size_of_TMR1_CallBack                                   (abs)        000000
__size_of_TMR1_DefaultInterruptHandler                    (abs)        000000
__size_of_TMR1_ISR                                        (abs)        000000
__size_of_TMR1_Initialize                                 (abs)        000000
__size_of_TMR1_ReadTimer                                  (abs)        000000
__size_of_TMR1_SetInterruptHandler                        (abs)        000000
__size_of_TMR1_WriteTimer                                 (abs)        000000
__size_of_TMR5_HasOverflowOccured                         (abs)        000000
__size_of_TMR5_Initialize                                 (abs)        000000
__size_of_TMR_GetDeltaTime                                (abs)        000000
__size_of_TMR_ISR_Lora_Init                               (abs)        000000
__size_of_TMR_ISR_lora                                    (abs)        000000
__size_of_TMR_OverrideRemaining                           (abs)        000000
__size_of_TMR_SwapTimer                                   (abs)        000000
__size_of_UnconfirmedTransmissionCallback                 (abs)        000000
__size_of_UpdateCfList                                    (abs)        000000
__size_of_UpdateChannelIdStatus                           (abs)        000000
__size_of_UpdateCurrentDataRate                           (abs)        000000
__size_of_UpdateDLSettings                                (abs)        000000
__size_of_UpdateDataRange                                 (abs)        000000
__size_of_UpdateDutyCycle                                 (abs)        000000
__size_of_UpdateFrequency                                 (abs)        000000
__size_of_UpdateJoinInProgress                            (abs)        000000
__size_of_UpdateJoinSuccessState                          (abs)        000000
__size_of_UpdateMinMaxChDataRate                          (abs)        000000
__size_of_UpdateReceiveDelays                             (abs)        000000
__size_of_UpdateReceiveWindow2Parameters                  (abs)        000000
__size_of_UpdateRetransmissionAckTimeoutState             (abs)        000000
__size_of_UpdateTxPower                                   (abs)        000000
__size_of_ValidateChannelId                               (abs)        000000
__size_of_ValidateChannelMask                             (abs)        000000
__size_of_ValidateChannelMaskCntl                         (abs)        000000
__size_of_ValidateDataRange                               (abs)        000000
__size_of_ValidateDataRate                                (abs)        000000
__size_of_ValidateFrequency                               (abs)        000000
__size_of_ValidateRxOffset                                (abs)        000000
__size_of_ValidateTxPower                                 (abs)        000000
__size_of___abdiv                                         (abs)        000000
__size_of___awdiv                                         (abs)        000000
__size_of___lldiv                                         (abs)        000000
__size_of___llmod                                         (abs)        000000
__size_of___lmul                                          (abs)        000000
__size_of___lwmod                                         (abs)        000000
__size_of___wmul                                          (abs)        000000
__size_of_main                                            (abs)        000000
__size_of_memcpy                                          (abs)        000000
__size_of_memset                                          (abs)        000000
__size_of_printf                                          (abs)        000000
__size_of_putch                                           (abs)        000000
__size_of_rand                                            (abs)        000000
__size_of_srand                                           (abs)        000000
__size_ofi2_SwTimersInterrupt                             (abs)        000000
__size_ofi2_TMR1_ReadTimer                                (abs)        000000
__size_ofi2_TMR1_WriteTimer                               (abs)        000000
__size_ofi2_TMR_GetDeltaTime                              (abs)        000000
__size_ofi2_TMR_SwapTimer                                 (abs)        000000
__smallconst                                              smallconst   000000
_activationMethod                                         bssBANK1     00011F
_adcResult                                                bssBANK1     00010C
_adcVoltage                                               bssBANK1     000108
_aesBuffer                                                bssBANK1     00015A
_allocatedTimers                                          bssBANK0     0000FB
_appSKey                                                  dataBANK3    0003A0
_bandwidth                                                mediumconst  00FF70
_counter                                                  bssBANK1     00011E
_data                                                     bssBANK1     000100
_devAddr                                                  dataBANK1    0001E7
_dioStatus                                                bssBANK1     000123
_eusart1RxLastError                                       bssBANK1     000120
_loRa                                                     bssBANK2     000200
_localDioStatus                                           bssBANK1     000121
_macBuffer                                                bssBIGRAM    0004E0
_macEndDevCmdReplyLen                                     mediumconst  00FF69
_main                                                     text0        006744
_maxPayloadSize                                           mediumconst  00FF59
_memcpy                                                   text199      007AB8
_memset                                                   text198      008596
_modulation                                               mediumconst  00FF49
_nwkSKey                                                  dataBANK3    0003B0
_printf                                                   text1        0084D6
_putch                                                    text2        008C30
_radioBuffer                                              bssBIGRAM    0005EF
_rand                                                     text149      007BD4
_randx                                                    dataBANK1    0001E3
_reloadVal                                                bssCOMRAM    000044
_rxPayload                                                bssBANK1     000110
_rxWindowOffset                                           mediumconst  00FF51
_rxWindowSize                                             mediumconst  00FF61
_spreadingFactor                                          mediumconst  00FF77
_srand                                                    text160      008C20
_swTimers                                                 bssBANK3     000300
_ticksAccounted                                           bssCOMRAM    00003C
_ticksAdded                                               bssCOMRAM    000040
_ticksToScheduledInterrupt                                dataCOMRAM   000054
_timer1ReloadVal                                          nvBANK1      0001F3
_timer5ReloadVal                                          nvBANK1      0001EB
_timerOverflow                                            bssCOMRAM    000047
_txPower868                                               mediumconst  00FF84
btemp                                                     temp         000048
end_of_initialization                                     cinit        006A68
i2SwTimersInterrupt@i                                     cstackCOMRAM 000031
i2SwTimersInterrupt@ticksToNextTimerEvent                 cstackCOMRAM 00002D
i2SwTimersInterrupt@timeElapsed                           cstackCOMRAM 000029
i2TMR1_ReadTimer@readVal                                  cstackCOMRAM 000005
i2TMR1_ReadTimer@readValHigh                              cstackCOMRAM 000007
i2TMR1_ReadTimer@readValLow                               cstackCOMRAM 000008
i2TMR1_WriteTimer@timerVal                                cstackCOMRAM 000001
i2TMR_SwapTimer@timerVal                                  cstackCOMRAM 000009
i2_SwTimersInterrupt                                      text209      005D1A
i2_TMR1_ReadTimer                                         text211      0089AC
i2_TMR1_WriteTimer                                        text208      008A82
i2_TMR_GetDeltaTime                                       text210      004E10
i2_TMR_SwapTimer                                          text207      00828A
intlevel0                                                 text         000000
intlevel1                                                 text         000000
intlevel2                                                 text         000000
intlevel3                                                 text         000000
ltemp0                                                    temp         000048
ltemp1                                                    temp         00004C
ltemp2                                                    temp         000050
memcpy@d                                                  cstackBANK0  000067
memcpy@d1                                                 cstackBANK0  000060
memcpy@n                                                  cstackBANK0  000064
memcpy@s                                                  cstackBANK0  000069
memcpy@s1                                                 cstackBANK0  000062
memcpy@tmp                                                cstackBANK0  000066
memset@c                                                  cstackBANK0  000062
memset@n                                                  cstackBANK0  000064
memset@p                                                  cstackBANK0  000066
memset@p1                                                 cstackBANK0  000060
printf@ap                                                 cstackBANK0  000064
printf@c                                                  cstackBANK0  000066
printf@f                                                  cstackBANK0  000062
putch@txData                                              cstackBANK0  000061
srand@x                                                   cstackBANK0  000072
stackhi                                                   (abs)        000F37
stacklo                                                   (abs)        0006FE
start                                                     init         00007E
start_initialization                                      cinit        0069B4
ttemp0                                                    temp         000048
ttemp1                                                    temp         00004B
ttemp2                                                    temp         00004E
ttemp3                                                    temp         000051
wtemp0                                                    temp         000048
wtemp1                                                    temp         00004A
wtemp2                                                    temp         00004C
wtemp3                                                    temp         00004E
wtemp4                                                    temp         000050
wtemp5                                                    temp         000052
wtemp6                                                    temp         000049


FUNCTION INFORMATION:

 *************** function _main *****************
 Defined at:
		line 76 in file "main.c"
 Parameters:    Size  Location     Type
		None
 Auto vars:     Size  Location     Type
  i               2    0        unsigned int 
 Return value:  Size  Location     Type
                  1    wreg      void 
 Registers used:
		wreg, fsr0l, fsr0h, fsr1l, fsr1h, fsr2l, fsr2h, status,2, status,0, pclath, btemp, btemp+1, btemp+2, btemp+4, btemp+5, btemp+6, btemp+7, btemp+8, btemp+9, btemp+10, btemp+11, tosl, tblptrl, tblptrh, tblptru, prodl, prodh, cstack
 Tracked objects:
		On entry : 
		On exit  : 
		Unchanged: 
 Data sizes:     COMRAM   BANK0   BANK1   BANK2   BANK3   BANK4   BANK5   BANK6   BANK7   BANK8   BANK9  BANK10  BANK11  BANK12  BANK13  BANK14  BANK15
      Params:         0       0       0       0       0       0       0       0       0       0       0       0       0       0       0       0       0
      Locals:         0       0       0       0       0       0       0       0       0       0       0       0       0       0       0       0       0
      Temps:          0       2       0       0       0       0       0       0       0       0       0       0       0       0       0       0       0
      Totals:         0       2       0       0       0       0       0       0       0       0       0       0       0       0       0       0       0
Total ram usage:        2 bytes
 Hardware stack levels required when called:   19
 This function calls:
		_LORAWAN_Init
		_LORAWAN_Join
		_LORAWAN_Mainloop
		_LORAWAN_Send
		_LORAWAN_SetApplicationSessionKey
		_LORAWAN_SetDeviceAddress
		_LORAWAN_SetNetworkSessionKey
		_SYSTEM_Initialize
		_TMR5_HasOverflowOccured
		_printf
 This function is called by:
		Startup code after reset
 This function uses a non-reentrant model


 *************** function _printf *****************
 Defined at:
		line 464 in file "C:\Program Files (x86)\Microchip\xc8\v1.45\sources\common\doprnt.c"
 Parameters:    Size  Location     Type
  f               2    2[BANK0 ] PTR const unsigned char 
		 -> STR_2(13), STR_1(10), 
 Auto vars:     Size  Location     Type
  tmpval          4    0        struct .
  cp              3    0        PTR const unsigned char 
  ap              2    4[BANK0 ] PTR void [1]
		 -> ?_printf(2), 
  len             2    0        unsigned int 
  val             2    0        unsigned int 
  c               1    6[BANK0 ] char 
  flag            1    0        unsigned char 
  prec            1    0        char 
 Return value:  Size  Location     Type
                  2    2[BANK0 ] int 
 Registers used:
		wreg, status,2, status,0, tblptrl, tblptrh, tblptru, cstack
 Tracked objects:
		On entry : 
		On exit  : 
		Unchanged: 
 Data sizes:     COMRAM   BANK0   BANK1   BANK2   BANK3   BANK4   BANK5   BANK6   BANK7   BANK8   BANK9  BANK10  BANK11  BANK12  BANK13  BANK14  BANK15
      Params:         0       2       0       0       0       0       0       0       0       0       0       0       0       0       0       0       0
      Locals:         0       3       0       0       0       0       0       0       0       0       0       0       0       0       0       0       0
      Temps:          0       0       0       0       0       0       0       0       0       0       0       0       0       0       0       0       0
      Totals:         0       5       0       0       0       0       0       0       0       0       0       0       0       0       0       0       0
Total ram usage:        5 bytes
 Hardware stack levels used:    1
 Hardware stack levels required when called:    9
 This function calls:
		_putch
 This function is called by:
		_main
 This function uses a non-reentrant model


 *************** function _putch *****************
 Defined at:
		line 146 in file "mcc_generated_files/eusart1.c"
 Parameters:    Size  Location     Type
  txData          1    wreg     unsigned char 
 Auto vars:     Size  Location     Type
  txData          1    1[BANK0 ] unsigned char 
 Return value:  Size  Location     Type
                  1    wreg      void 
 Registers used:
		wreg, status,2, cstack
 Tracked objects:
		On entry : 
		On exit  : 
		Unchanged: 
 Data sizes:     COMRAM   BANK0   BANK1   BANK2   BANK3   BANK4   BANK5   BANK6   BANK7   BANK8   BANK9  BANK10  BANK11  BANK12  BANK13  BANK14  BANK15
      Params:         0       0       0       0       0       0       0       0       0       0       0       0       0       0       0       0       0
      Locals:         0       1       0       0       0       0       0       0       0       0       0       0       0       0       0       0       0
      Temps:          0       0       0       0       0       0       0       0       0       0       0       0       0       0       0       0       0
      Totals:         0       1       0       0       0       0       0       0       0       0       0       0       0       0       0       0       0
Total ram usage:        1 bytes
 Hardware stack levels used:    1
 Hardware stack levels required when called:    8
 This function calls:
		_EUSART1_Write
 This function is called by:
		_printf
 This function uses a non-reentrant model


 *************** function _EUSART1_Write *****************
 Defined at:
		line 132 in file "mcc_generated_files/eusart1.c"
 Parameters:    Size  Location     Type
  txData          1    wreg     unsigned char 
 Auto vars:     Size  Location     Type
  txData          1    0[BANK0 ] unsigned char 
 Return value:  Size  Location     Type
                  1    wreg      void 
 Registers used:
		wreg
 Tracked objects:
		On entry : 
		On exit  : 
		Unchanged: 
 Data sizes:     COMRAM   BANK0   BANK1   BANK2   BANK3   BANK4   BANK5   BANK6   BANK7   BANK8   BANK9  BANK10  BANK11  BANK12  BANK13  BANK14  BANK15
      Params:         0       0       0       0       0       0       0       0       0       0       0       0       0       0       0       0       0
      Locals:         0       1       0       0       0       0       0       0       0       0       0       0       0       0       0       0       0
      Temps:          0       0       0       0       0       0       0       0       0       0       0       0       0       0       0       0       0
      Totals:         0       1       0       0       0       0       0       0       0       0       0       0       0       0       0       0       0
Total ram usage:        1 bytes
 Hardware stack levels used:    1
 Hardware stack levels required when called:    7
 This function calls:
		Nothing
 This function is called by:
		_putch
 This function uses a non-reentrant model


 *************** function _TMR5_HasOverflowOccured *****************
 Defined at:
		line 151 in file "mcc_generated_files/tmr5.c"
 Parameters:    Size  Location     Type
		None
 Auto vars:     Size  Location     Type
		None
 Return value:  Size  Location     Type
                  1    wreg      unsigned char 
 Registers used:
		wreg
 Tracked objects:
		On entry : 
		On exit  : 
		Unchanged: 
 Data sizes:     COMRAM   BANK0   BANK1   BANK2   BANK3   BANK4   BANK5   BANK6   BANK7   BANK8   BANK9  BANK10  BANK11  BANK12  BANK13  BANK14  BANK15
      Params:         0       0       0       0       0       0       0       0       0       0       0       0       0       0       0       0       0
      Locals:         0       0       0       0       0       0       0       0       0       0       0       0       0       0       0       0       0
      Temps:          0       0       0       0       0       0       0       0       0       0       0       0       0       0       0       0       0
      Totals:         0       0       0       0       0       0       0       0       0       0       0       0       0       0       0       0       0
Total ram usage:        0 bytes
 Hardware stack levels used:    1
 Hardware stack levels required when called:    7
 This function calls:
		Nothing
 This function is called by:
		_main
 This function uses a non-reentrant model


 *************** function _SYSTEM_Initialize *****************
 Defined at:
		line 50 in file "mcc_generated_files/mcc.c"
 Parameters:    Size  Location     Type
		None
 Auto vars:     Size  Location     Type
		None
 Return value:  Size  Location     Type
                  1    wreg      void 
 Registers used:
		wreg, status,2, status,0, cstack
 Tracked objects:
		On entry : 
		On exit  : 
		Unchanged: 
 Data sizes:     COMRAM   BANK0   BANK1   BANK2   BANK3   BANK4   BANK5   BANK6   BANK7   BANK8   BANK9  BANK10  BANK11  BANK12  BANK13  BANK14  BANK15
      Params:         0       0       0       0       0       0       0       0       0       0       0       0       0       0       0       0       0
      Locals:         0       0       0       0       0       0       0       0       0       0       0       0       0       0       0       0       0
      Temps:          0       0       0       0       0       0       0       0       0       0       0       0       0       0       0       0       0
      Totals:         0       0       0       0       0       0       0       0       0       0       0       0       0       0       0       0       0
Total ram usage:        0 bytes
 Hardware stack levels used:    1
 Hardware stack levels required when called:   10
 This function calls:
		_ADC_Initialize
		_CCP5_Initialize
		_EUSART1_Initialize
		_EXT_INT_Initialize
		_INTERRUPT_Initialize
		_LORAWAN_PlatformInit
		_OSCILLATOR_Initialize
		_PIN_MANAGER_Initialize
		_SPI2_Initialize
		_TMR1_Initialize
		_TMR5_Initialize
 This function is called by:
		_main
 This function uses a non-reentrant model


 *************** function _TMR5_Initialize *****************
 Defined at:
		line 63 in file "mcc_generated_files/tmr5.c"
 Parameters:    Size  Location     Type
		None
 Auto vars:     Size  Location     Type
		None
 Return value:  Size  Location     Type
                  1    wreg      void 
 Registers used:
		wreg, status,2
 Tracked objects:
		On entry : 
		On exit  : 
		Unchanged: 
 Data sizes:     COMRAM   BANK0   BANK1   BANK2   BANK3   BANK4   BANK5   BANK6   BANK7   BANK8   BANK9  BANK10  BANK11  BANK12  BANK13  BANK14  BANK15
      Params:         0       0       0       0       0       0       0       0       0       0       0       0       0       0       0       0       0
      Locals:         0       0       0       0       0       0       0       0       0       0       0       0       0       0       0       0       0
      Temps:          0       0       0       0       0       0       0       0       0       0       0       0       0       0       0       0       0
      Totals:         0       0       0       0       0       0       0       0       0       0       0       0       0       0       0       0       0
Total ram usage:        0 bytes
 Hardware stack levels used:    1
 Hardware stack levels required when called:    7
 This function calls:
		Nothing
 This function is called by:
		_SYSTEM_Initialize
 This function uses a non-reentrant model


 *************** function _TMR1_Initialize *****************
 Defined at:
		line 64 in file "mcc_generated_files/tmr1.c"
 Parameters:    Size  Location     Type
		None
 Auto vars:     Size  Location     Type
		None
 Return value:  Size  Location     Type
                  1    wreg      void 
 Registers used:
		wreg, status,2, status,0, cstack
 Tracked objects:
		On entry : 
		On exit  : 
		Unchanged: 
 Data sizes:     COMRAM   BANK0   BANK1   BANK2   BANK3   BANK4   BANK5   BANK6   BANK7   BANK8   BANK9  BANK10  BANK11  BANK12  BANK13  BANK14  BANK15
      Params:         0       0       0       0       0       0       0       0       0       0       0       0       0       0       0       0       0
      Locals:         0       0       0       0       0       0       0       0       0       0       0       0       0       0       0       0       0
      Temps:          0       0       0       0       0       0       0       0       0       0       0       0       0       0       0       0       0
      Totals:         0       0       0       0       0       0       0       0       0       0       0       0       0       0       0       0       0
Total ram usage:        0 bytes
 Hardware stack levels used:    1
 Hardware stack levels required when called:    8
 This function calls:
		_TMR1_SetInterruptHandler
 This function is called by:
		_SYSTEM_Initialize
 This function uses a non-reentrant model


 *************** function _SPI2_Initialize *****************
 Defined at:
		line 65 in file "mcc_generated_files/spi2.c"
 Parameters:    Size  Location     Type
		None
 Auto vars:     Size  Location     Type
		None
 Return value:  Size  Location     Type
                  1    wreg      void 
 Registers used:
		wreg, status,2
 Tracked objects:
		On entry : 
		On exit  : 
		Unchanged: 
 Data sizes:     COMRAM   BANK0   BANK1   BANK2   BANK3   BANK4   BANK5   BANK6   BANK7   BANK8   BANK9  BANK10  BANK11  BANK12  BANK13  BANK14  BANK15
      Params:         0       0       0       0       0       0       0       0       0       0       0       0       0       0       0       0       0
      Locals:         0       0       0       0       0       0       0       0       0       0       0       0       0       0       0       0       0
      Temps:          0       0       0       0       0       0       0       0       0       0       0       0       0       0       0       0       0
      Totals:         0       0       0       0       0       0       0       0       0       0       0       0       0       0       0       0       0
Total ram usage:        0 bytes
 Hardware stack levels used:    1
 Hardware stack levels required when called:    7
 This function calls:
		Nothing
 This function is called by:
		_SYSTEM_Initialize
 This function uses a non-reentrant model


 *************** function _PIN_MANAGER_Initialize *****************
 Defined at:
		line 57 in file "mcc_generated_files/pin_manager.c"
 Parameters:    Size  Location     Type
		None
 Auto vars:     Size  Location     Type
		None
 Return value:  Size  Location     Type
                  1    wreg      void 
 Registers used:
		wreg, status,2, status,0, cstack
 Tracked objects:
		On entry : 
		On exit  : 
		Unchanged: 
 Data sizes:     COMRAM   BANK0   BANK1   BANK2   BANK3   BANK4   BANK5   BANK6   BANK7   BANK8   BANK9  BANK10  BANK11  BANK12  BANK13  BANK14  BANK15
      Params:         0       0       0       0       0       0       0       0       0       0       0       0       0       0       0       0       0
      Locals:         0       0       0       0       0       0       0       0       0       0       0       0       0       0       0       0       0
      Temps:          0       0       0       0       0       0       0       0       0       0       0       0       0       0       0       0       0
      Totals:         0       0       0       0       0       0       0       0       0       0       0       0       0       0       0       0       0
Total ram usage:        0 bytes
 Hardware stack levels used:    1
 Hardware stack levels required when called:    8
 This function calls:
		_IOCB4_SetInterruptHandler
 This function is called by:
		_SYSTEM_Initialize
 This function uses a non-reentrant model


 *************** function _OSCILLATOR_Initialize *****************
 Defined at:
		line 66 in file "mcc_generated_files/mcc.c"
 Parameters:    Size  Location     Type
		None
 Auto vars:     Size  Location     Type
		None
 Return value:  Size  Location     Type
                  1    wreg      void 
 Registers used:
		wreg, status,2
 Tracked objects:
		On entry : 
		On exit  : 
		Unchanged: 
 Data sizes:     COMRAM   BANK0   BANK1   BANK2   BANK3   BANK4   BANK5   BANK6   BANK7   BANK8   BANK9  BANK10  BANK11  BANK12  BANK13  BANK14  BANK15
      Params:         0       0       0       0       0       0       0       0       0       0       0       0       0       0       0       0       0
      Locals:         0       0       0       0       0       0       0       0       0       0       0       0       0       0       0       0       0
      Temps:          0       0       0       0       0       0       0       0       0       0       0       0       0       0       0       0       0
      Totals:         0       0       0       0       0       0       0       0       0       0       0       0       0       0       0       0       0
Total ram usage:        0 bytes
 Hardware stack levels used:    1
 Hardware stack levels required when called:    7
 This function calls:
		Nothing
 This function is called by:
		_SYSTEM_Initialize
 This function uses a non-reentrant model


 *************** function _LORAWAN_PlatformInit *****************
 Defined at:
		line 73 in file "mcc_generated_files/LoRaWAN/lorawan_init.c"
 Parameters:    Size  Location     Type
		None
 Auto vars:     Size  Location     Type
		None
 Return value:  Size  Location     Type
                  1    wreg      void 
 Registers used:
		wreg, status,2, status,0, cstack
 Tracked objects:
		On entry : 
		On exit  : 
		Unchanged: 
 Data sizes:     COMRAM   BANK0   BANK1   BANK2   BANK3   BANK4   BANK5   BANK6   BANK7   BANK8   BANK9  BANK10  BANK11  BANK12  BANK13  BANK14  BANK15
      Params:         0       0       0       0       0       0       0       0       0       0       0       0       0       0       0       0       0
      Locals:         0       0       0       0       0       0       0       0       0       0       0       0       0       0       0       0       0
      Temps:          0       0       0       0       0       0       0       0       0       0       0       0       0       0       0       0       0
      Totals:         0       0       0       0       0       0       0       0       0       0       0       0       0       0       0       0       0
Total ram usage:        0 bytes
 Hardware stack levels used:    1
 Hardware stack levels required when called:    9
 This function calls:
		_DIO0_ISR_Lora_Init
		_DIO1_ISR_Lora_Init
		_DIO2_ISR_Lora_Init
		_DIO3_ISR_Lora_Init
		_DIO4_ISR_Lora_Init
		_DIO5_ISR_Lora_Init
		_SystemTimerInit
		_TMR_ISR_Lora_Init
 This function is called by:
		_SYSTEM_Initialize
 This function uses a non-reentrant model


 *************** function _TMR_ISR_Lora_Init *****************
 Defined at:
		line 54 in file "mcc_generated_files/LoRaWAN/tmr_lora_addons.c"
 Parameters:    Size  Location     Type
		None
 Auto vars:     Size  Location     Type
		None
 Return value:  Size  Location     Type
                  1    wreg      void 
 Registers used:
		wreg, status,2, status,0, cstack
 Tracked objects:
		On entry : 
		On exit  : 
		Unchanged: 
 Data sizes:     COMRAM   BANK0   BANK1   BANK2   BANK3   BANK4   BANK5   BANK6   BANK7   BANK8   BANK9  BANK10  BANK11  BANK12  BANK13  BANK14  BANK15
      Params:         0       0       0       0       0       0       0       0       0       0       0       0       0       0       0       0       0
      Locals:         0       0       0       0       0       0       0       0       0       0       0       0       0       0       0       0       0
      Temps:          0       0       0       0       0       0       0       0       0       0       0       0       0       0       0       0       0
      Totals:         0       0       0       0       0       0       0       0       0       0       0       0       0       0       0       0       0
Total ram usage:        0 bytes
 Hardware stack levels used:    1
 Hardware stack levels required when called:    8
 This function calls:
		_TMR1_SetInterruptHandler
 This function is called by:
		_LORAWAN_PlatformInit
 This function uses a non-reentrant model


 *************** function _TMR1_SetInterruptHandler *****************
 Defined at:
		line 179 in file "mcc_generated_files/tmr1.c"
 Parameters:    Size  Location     Type
  InterruptHan    2    0[BANK0 ] PTR FTN()void 
		 -> TMR1_DefaultInterruptHandler(1), TMR_ISR_lora(1), 
 Auto vars:     Size  Location     Type
		None
 Return value:  Size  Location     Type
                  1    wreg      void 
 Registers used:
		wreg, status,2, status,0
 Tracked objects:
		On entry : 
		On exit  : 
		Unchanged: 
 Data sizes:     COMRAM   BANK0   BANK1   BANK2   BANK3   BANK4   BANK5   BANK6   BANK7   BANK8   BANK9  BANK10  BANK11  BANK12  BANK13  BANK14  BANK15
      Params:         0       2       0       0       0       0       0       0       0       0       0       0       0       0       0       0       0
      Locals:         0       0       0       0       0       0       0       0       0       0       0       0       0       0       0       0       0
      Temps:          0       0       0       0       0       0       0       0       0       0       0       0       0       0       0       0       0
      Totals:         0       2       0       0       0       0       0       0       0       0       0       0       0       0       0       0       0
Total ram usage:        2 bytes
 Hardware stack levels used:    1
 Hardware stack levels required when called:    7
 This function calls:
		Nothing
 This function is called by:
		_TMR_ISR_Lora_Init
		_TMR1_Initialize
 This function uses a non-reentrant model


 *************** function _SystemTimerInit *****************
 Defined at:
		line 135 in file "mcc_generated_files/LoRaWAN/sw_timer.c"
 Parameters:    Size  Location     Type
		None
 Auto vars:     Size  Location     Type
		None
 Return value:  Size  Location     Type
                  1    wreg      void 
 Registers used:
		wreg, status,2
 Tracked objects:
		On entry : 
		On exit  : 
		Unchanged: 
 Data sizes:     COMRAM   BANK0   BANK1   BANK2   BANK3   BANK4   BANK5   BANK6   BANK7   BANK8   BANK9  BANK10  BANK11  BANK12  BANK13  BANK14  BANK15
      Params:         0       0       0       0       0       0       0       0       0       0       0       0       0       0       0       0       0
      Locals:         0       0       0       0       0       0       0       0       0       0       0       0       0       0       0       0       0
      Temps:          0       0       0       0       0       0       0       0       0       0       0       0       0       0       0       0       0
      Totals:         0       0       0       0       0       0       0       0       0       0       0       0       0       0       0       0       0
Total ram usage:        0 bytes
 Hardware stack levels used:    1
 Hardware stack levels required when called:    7
 This function calls:
		Nothing
 This function is called by:
		_LORAWAN_PlatformInit
 This function uses a non-reentrant model


 *************** function _DIO5_ISR_Lora_Init *****************
 Defined at:
		line 67 in file "mcc_generated_files/LoRaWAN/lorawan_init.c"
 Parameters:    Size  Location     Type
		None
 Auto vars:     Size  Location     Type
		None
 Return value:  Size  Location     Type
                  1    wreg      void 
 Registers used:
		None
 Tracked objects:
		On entry : 
		On exit  : 
		Unchanged: 
 Data sizes:     COMRAM   BANK0   BANK1   BANK2   BANK3   BANK4   BANK5   BANK6   BANK7   BANK8   BANK9  BANK10  BANK11  BANK12  BANK13  BANK14  BANK15
      Params:         0       0       0       0       0       0       0       0       0       0       0       0       0       0       0       0       0
      Locals:         0       0       0       0       0       0       0       0       0       0       0       0       0       0       0       0       0
      Temps:          0       0       0       0       0       0       0       0       0       0       0       0       0       0       0       0       0
      Totals:         0       0       0       0       0       0       0       0       0       0       0       0       0       0       0       0       0
Total ram usage:        0 bytes
 Hardware stack levels used:    1
 Hardware stack levels required when called:    7
 This function calls:
		Nothing
 This function is called by:
		_LORAWAN_PlatformInit
 This function uses a non-reentrant model


 *************** function _DIO4_ISR_Lora_Init *****************
 Defined at:
		line 63 in file "mcc_generated_files/LoRaWAN/lorawan_init.c"
 Parameters:    Size  Location     Type
		None
 Auto vars:     Size  Location     Type
		None
 Return value:  Size  Location     Type
                  1    wreg      void 
 Registers used:
		None
 Tracked objects:
		On entry : 
		On exit  : 
		Unchanged: 
 Data sizes:     COMRAM   BANK0   BANK1   BANK2   BANK3   BANK4   BANK5   BANK6   BANK7   BANK8   BANK9  BANK10  BANK11  BANK12  BANK13  BANK14  BANK15
      Params:         0       0       0       0       0       0       0       0       0       0       0       0       0       0       0       0       0
      Locals:         0       0       0       0       0       0       0       0       0       0       0       0       0       0       0       0       0
      Temps:          0       0       0       0       0       0       0       0       0       0       0       0       0       0       0       0       0
      Totals:         0       0       0       0       0       0       0       0       0       0       0       0       0       0       0       0       0
Total ram usage:        0 bytes
 Hardware stack levels used:    1
 Hardware stack levels required when called:    7
 This function calls:
		Nothing
 This function is called by:
		_LORAWAN_PlatformInit
 This function uses a non-reentrant model


 *************** function _DIO3_ISR_Lora_Init *****************
 Defined at:
		line 59 in file "mcc_generated_files/LoRaWAN/lorawan_init.c"
 Parameters:    Size  Location     Type
		None
 Auto vars:     Size  Location     Type
		None
 Return value:  Size  Location     Type
                  1    wreg      void 
 Registers used:
		None
 Tracked objects:
		On entry : 
		On exit  : 
		Unchanged: 
 Data sizes:     COMRAM   BANK0   BANK1   BANK2   BANK3   BANK4   BANK5   BANK6   BANK7   BANK8   BANK9  BANK10  BANK11  BANK12  BANK13  BANK14  BANK15
      Params:         0       0       0       0       0       0       0       0       0       0       0       0       0       0       0       0       0
      Locals:         0       0       0       0       0       0       0       0       0       0       0       0       0       0       0       0       0
      Temps:          0       0       0       0       0       0       0       0       0       0       0       0       0       0       0       0       0
      Totals:         0       0       0       0       0       0       0       0       0       0       0       0       0       0       0       0       0
Total ram usage:        0 bytes
 Hardware stack levels used:    1
 Hardware stack levels required when called:    7
 This function calls:
		Nothing
 This function is called by:
		_LORAWAN_PlatformInit
 This function uses a non-reentrant model


 *************** function _DIO2_ISR_Lora_Init *****************
 Defined at:
		line 54 in file "mcc_generated_files/LoRaWAN/lorawan_init.c"
 Parameters:    Size  Location     Type
		None
 Auto vars:     Size  Location     Type
		None
 Return value:  Size  Location     Type
                  1    wreg      void 
 Registers used:
		wreg, status,2, status,0, cstack
 Tracked objects:
		On entry : 
		On exit  : 
		Unchanged: 
 Data sizes:     COMRAM   BANK0   BANK1   BANK2   BANK3   BANK4   BANK5   BANK6   BANK7   BANK8   BANK9  BANK10  BANK11  BANK12  BANK13  BANK14  BANK15
      Params:         0       0       0       0       0       0       0       0       0       0       0       0       0       0       0       0       0
      Locals:         0       0       0       0       0       0       0       0       0       0       0       0       0       0       0       0       0
      Temps:          0       0       0       0       0       0       0       0       0       0       0       0       0       0       0       0       0
      Totals:         0       0       0       0       0       0       0       0       0       0       0       0       0       0       0       0       0
Total ram usage:        0 bytes
 Hardware stack levels used:    1
 Hardware stack levels required when called:    8
 This function calls:
		_IOCB4_SetInterruptHandler
 This function is called by:
		_LORAWAN_PlatformInit
 This function uses a non-reentrant model


 *************** function _IOCB4_SetInterruptHandler *****************
 Defined at:
		line 138 in file "mcc_generated_files/pin_manager.c"
 Parameters:    Size  Location     Type
  InterruptHan    2    0[BANK0 ] PTR FTN()void 
		 -> IOCB4_DefaultInterruptHandler(1), DIO2_ISR_Lora(1), 
 Auto vars:     Size  Location     Type
		None
 Return value:  Size  Location     Type
                  1    wreg      void 
 Registers used:
		wreg, status,2, status,0
 Tracked objects:
		On entry : 
		On exit  : 
		Unchanged: 
 Data sizes:     COMRAM   BANK0   BANK1   BANK2   BANK3   BANK4   BANK5   BANK6   BANK7   BANK8   BANK9  BANK10  BANK11  BANK12  BANK13  BANK14  BANK15
      Params:         0       2       0       0       0       0       0       0       0       0       0       0       0       0       0       0       0
      Locals:         0       0       0       0       0       0       0       0       0       0       0       0       0       0       0       0       0
      Temps:          0       0       0       0       0       0       0       0       0       0       0       0       0       0       0       0       0
      Totals:         0       2       0       0       0       0       0       0       0       0       0       0       0       0       0       0       0
Total ram usage:        2 bytes
 Hardware stack levels used:    1
 Hardware stack levels required when called:    7
 This function calls:
		Nothing
 This function is called by:
		_DIO2_ISR_Lora_Init
		_PIN_MANAGER_Initialize
 This function uses a non-reentrant model


 *************** function _DIO1_ISR_Lora_Init *****************
 Defined at:
		line 49 in file "mcc_generated_files/LoRaWAN/lorawan_init.c"
 Parameters:    Size  Location     Type
		None
 Auto vars:     Size  Location     Type
		None
 Return value:  Size  Location     Type
                  1    wreg      void 
 Registers used:
		wreg, status,2, status,0, cstack
 Tracked objects:
		On entry : 
		On exit  : 
		Unchanged: 
 Data sizes:     COMRAM   BANK0   BANK1   BANK2   BANK3   BANK4   BANK5   BANK6   BANK7   BANK8   BANK9  BANK10  BANK11  BANK12  BANK13  BANK14  BANK15
      Params:         0       0       0       0       0       0       0       0       0       0       0       0       0       0       0       0       0
      Locals:         0       0       0       0       0       0       0       0       0       0       0       0       0       0       0       0       0
      Temps:          0       0       0       0       0       0       0       0       0       0       0       0       0       0       0       0       0
      Totals:         0       0       0       0       0       0       0       0       0       0       0       0       0       0       0       0       0
Total ram usage:        0 bytes
 Hardware stack levels used:    1
 Hardware stack levels required when called:    8
 This function calls:
		_INT2_SetInterruptHandler
 This function is called by:
		_LORAWAN_PlatformInit
 This function uses a non-reentrant model


 *************** function _DIO0_ISR_Lora_Init *****************
 Defined at:
		line 44 in file "mcc_generated_files/LoRaWAN/lorawan_init.c"
 Parameters:    Size  Location     Type
		None
 Auto vars:     Size  Location     Type
		None
 Return value:  Size  Location     Type
                  1    wreg      void 
 Registers used:
		wreg, status,2, status,0, cstack
 Tracked objects:
		On entry : 
		On exit  : 
		Unchanged: 
 Data sizes:     COMRAM   BANK0   BANK1   BANK2   BANK3   BANK4   BANK5   BANK6   BANK7   BANK8   BANK9  BANK10  BANK11  BANK12  BANK13  BANK14  BANK15
      Params:         0       0       0       0       0       0       0       0       0       0       0       0       0       0       0       0       0
      Locals:         0       0       0       0       0       0       0       0       0       0       0       0       0       0       0       0       0
      Temps:          0       0       0       0       0       0       0       0       0       0       0       0       0       0       0       0       0
      Totals:         0       0       0       0       0       0       0       0       0       0       0       0       0       0       0       0       0
Total ram usage:        0 bytes
 Hardware stack levels used:    1
 Hardware stack levels required when called:    8
 This function calls:
		_INT1_SetInterruptHandler
 This function is called by:
		_LORAWAN_PlatformInit
 This function uses a non-reentrant model


 *************** function _INTERRUPT_Initialize *****************
 Defined at:
		line 52 in file "mcc_generated_files/interrupt_manager.c"
 Parameters:    Size  Location     Type
		None
 Auto vars:     Size  Location     Type
		None
 Return value:  Size  Location     Type
                  1    wreg      void 
 Registers used:
		None
 Tracked objects:
		On entry : 
		On exit  : 
		Unchanged: 
 Data sizes:     COMRAM   BANK0   BANK1   BANK2   BANK3   BANK4   BANK5   BANK6   BANK7   BANK8   BANK9  BANK10  BANK11  BANK12  BANK13  BANK14  BANK15
      Params:         0       0       0       0       0       0       0       0       0       0       0       0       0       0       0       0       0
      Locals:         0       0       0       0       0       0       0       0       0       0       0       0       0       0       0       0       0
      Temps:          0       0       0       0       0       0       0       0       0       0       0       0       0       0       0       0       0
      Totals:         0       0       0       0       0       0       0       0       0       0       0       0       0       0       0       0       0
Total ram usage:        0 bytes
 Hardware stack levels used:    1
 Hardware stack levels required when called:    7
 This function calls:
		Nothing
 This function is called by:
		_SYSTEM_Initialize
 This function uses a non-reentrant model


 *************** function _EXT_INT_Initialize *****************
 Defined at:
		line 86 in file "mcc_generated_files/ext_int.c"
 Parameters:    Size  Location     Type
		None
 Auto vars:     Size  Location     Type
		None
 Return value:  Size  Location     Type
                  1    wreg      void 
 Registers used:
		wreg, status,2, status,0, cstack
 Tracked objects:
		On entry : 
		On exit  : 
		Unchanged: 
 Data sizes:     COMRAM   BANK0   BANK1   BANK2   BANK3   BANK4   BANK5   BANK6   BANK7   BANK8   BANK9  BANK10  BANK11  BANK12  BANK13  BANK14  BANK15
      Params:         0       0       0       0       0       0       0       0       0       0       0       0       0       0       0       0       0
      Locals:         0       0       0       0       0       0       0       0       0       0       0       0       0       0       0       0       0
      Temps:          0       0       0       0       0       0       0       0       0       0       0       0       0       0       0       0       0
      Totals:         0       0       0       0       0       0       0       0       0       0       0       0       0       0       0       0       0
Total ram usage:        0 bytes
 Hardware stack levels used:    1
 Hardware stack levels required when called:    8
 This function calls:
		_INT1_SetInterruptHandler
		_INT2_SetInterruptHandler
 This function is called by:
		_SYSTEM_Initialize
 This function uses a non-reentrant model


 *************** function _INT2_SetInterruptHandler *****************
 Defined at:
		line 77 in file "mcc_generated_files/ext_int.c"
 Parameters:    Size  Location     Type
  InterruptHan    2    0[BANK0 ] PTR FTN()void 
		 -> INT2_DefaultInterruptHandler(1), DIO1_ISR_Lora(1), 
 Auto vars:     Size  Location     Type
		None
 Return value:  Size  Location     Type
                  1    wreg      void 
 Registers used:
		wreg, status,2, status,0
 Tracked objects:
		On entry : 
		On exit  : 
		Unchanged: 
 Data sizes:     COMRAM   BANK0   BANK1   BANK2   BANK3   BANK4   BANK5   BANK6   BANK7   BANK8   BANK9  BANK10  BANK11  BANK12  BANK13  BANK14  BANK15
      Params:         0       2       0       0       0       0       0       0       0       0       0       0       0       0       0       0       0
      Locals:         0       0       0       0       0       0       0       0       0       0       0       0       0       0       0       0       0
      Temps:          0       0       0       0       0       0       0       0       0       0       0       0       0       0       0       0       0
      Totals:         0       2       0       0       0       0       0       0       0       0       0       0       0       0       0       0       0
Total ram usage:        2 bytes
 Hardware stack levels used:    1
 Hardware stack levels required when called:    7
 This function calls:
		Nothing
 This function is called by:
		_DIO1_ISR_Lora_Init
		_EXT_INT_Initialize
 This function uses a non-reentrant model


 *************** function _INT1_SetInterruptHandler *****************
 Defined at:
		line 51 in file "mcc_generated_files/ext_int.c"
 Parameters:    Size  Location     Type
  InterruptHan    2    0[BANK0 ] PTR FTN()void 
		 -> INT1_DefaultInterruptHandler(1), DIO0_ISR_Lora(1), 
 Auto vars:     Size  Location     Type
		None
 Return value:  Size  Location     Type
                  1    wreg      void 
 Registers used:
		wreg, status,2, status,0
 Tracked objects:
		On entry : 
		On exit  : 
		Unchanged: 
 Data sizes:     COMRAM   BANK0   BANK1   BANK2   BANK3   BANK4   BANK5   BANK6   BANK7   BANK8   BANK9  BANK10  BANK11  BANK12  BANK13  BANK14  BANK15
      Params:         0       2       0       0       0       0       0       0       0       0       0       0       0       0       0       0       0
      Locals:         0       0       0       0       0       0       0       0       0       0       0       0       0       0       0       0       0
      Temps:          0       0       0       0       0       0       0       0       0       0       0       0       0       0       0       0       0
      Totals:         0       2       0       0       0       0       0       0       0       0       0       0       0       0       0       0       0
Total ram usage:        2 bytes
 Hardware stack levels used:    1
 Hardware stack levels required when called:    7
 This function calls:
		Nothing
 This function is called by:
		_DIO0_ISR_Lora_Init
		_EXT_INT_Initialize
 This function uses a non-reentrant model


 *************** function _EUSART1_Initialize *****************
 Defined at:
		line 66 in file "mcc_generated_files/eusart1.c"
 Parameters:    Size  Location     Type
		None
 Auto vars:     Size  Location     Type
		None
 Return value:  Size  Location     Type
                  1    wreg      void 
 Registers used:
		wreg, status,2, status,0, cstack
 Tracked objects:
		On entry : 
		On exit  : 
		Unchanged: 
 Data sizes:     COMRAM   BANK0   BANK1   BANK2   BANK3   BANK4   BANK5   BANK6   BANK7   BANK8   BANK9  BANK10  BANK11  BANK12  BANK13  BANK14  BANK15
      Params:         0       0       0       0       0       0       0       0       0       0       0       0       0       0       0       0       0
      Locals:         0       0       0       0       0       0       0       0       0       0       0       0       0       0       0       0       0
      Temps:          0       0       0       0       0       0       0       0       0       0       0       0       0       0       0       0       0
      Totals:         0       0       0       0       0       0       0       0       0       0       0       0       0       0       0       0       0
Total ram usage:        0 bytes
 Hardware stack levels used:    1
 Hardware stack levels required when called:    8
 This function calls:
		_EUSART1_SetErrorHandler
		_EUSART1_SetFramingErrorHandler
		_EUSART1_SetOverrunErrorHandler
 This function is called by:
		_SYSTEM_Initialize
 This function uses a non-reentrant model


 *************** function _EUSART1_SetOverrunErrorHandler *****************
 Defined at:
		line 170 in file "mcc_generated_files/eusart1.c"
 Parameters:    Size  Location     Type
  interruptHan    2    0[BANK0 ] PTR FTN()void 
		 -> EUSART1_DefaultOverrunErrorHandler(1), 
 Auto vars:     Size  Location     Type
		None
 Return value:  Size  Location     Type
                  1    wreg      void 
 Registers used:
		wreg, status,2, status,0
 Tracked objects:
		On entry : 
		On exit  : 
		Unchanged: 
 Data sizes:     COMRAM   BANK0   BANK1   BANK2   BANK3   BANK4   BANK5   BANK6   BANK7   BANK8   BANK9  BANK10  BANK11  BANK12  BANK13  BANK14  BANK15
      Params:         0       2       0       0       0       0       0       0       0       0       0       0       0       0       0       0       0
      Locals:         0       0       0       0       0       0       0       0       0       0       0       0       0       0       0       0       0
      Temps:          0       0       0       0       0       0       0       0       0       0       0       0       0       0       0       0       0
      Totals:         0       2       0       0       0       0       0       0       0       0       0       0       0       0       0       0       0
Total ram usage:        2 bytes
 Hardware stack levels used:    1
 Hardware stack levels required when called:    7
 This function calls:
		Nothing
 This function is called by:
		_EUSART1_Initialize
 This function uses a non-reentrant model


 *************** function _EUSART1_SetFramingErrorHandler *****************
 Defined at:
		line 166 in file "mcc_generated_files/eusart1.c"
 Parameters:    Size  Location     Type
  interruptHan    2    0[BANK0 ] PTR FTN()void 
		 -> EUSART1_DefaultFramingErrorHandler(1), 
 Auto vars:     Size  Location     Type
		None
 Return value:  Size  Location     Type
                  1    wreg      void 
 Registers used:
		wreg, status,2, status,0
 Tracked objects:
		On entry : 
		On exit  : 
		Unchanged: 
 Data sizes:     COMRAM   BANK0   BANK1   BANK2   BANK3   BANK4   BANK5   BANK6   BANK7   BANK8   BANK9  BANK10  BANK11  BANK12  BANK13  BANK14  BANK15
      Params:         0       2       0       0       0       0       0       0       0       0       0       0       0       0       0       0       0
      Locals:         0       0       0       0       0       0       0       0       0       0       0       0       0       0       0       0       0
      Temps:          0       0       0       0       0       0       0       0       0       0       0       0       0       0       0       0       0
      Totals:         0       2       0       0       0       0       0       0       0       0       0       0       0       0       0       0       0
Total ram usage:        2 bytes
 Hardware stack levels used:    1
 Hardware stack levels required when called:    7
 This function calls:
		Nothing
 This function is called by:
		_EUSART1_Initialize
 This function uses a non-reentrant model


 *************** function _EUSART1_SetErrorHandler *****************
 Defined at:
		line 174 in file "mcc_generated_files/eusart1.c"
 Parameters:    Size  Location     Type
  interruptHan    2    0[BANK0 ] PTR FTN()void 
		 -> EUSART1_DefaultErrorHandler(1), 
 Auto vars:     Size  Location     Type
		None
 Return value:  Size  Location     Type
                  1    wreg      void 
 Registers used:
		wreg, status,2, status,0
 Tracked objects:
		On entry : 
		On exit  : 
		Unchanged: 
 Data sizes:     COMRAM   BANK0   BANK1   BANK2   BANK3   BANK4   BANK5   BANK6   BANK7   BANK8   BANK9  BANK10  BANK11  BANK12  BANK13  BANK14  BANK15
      Params:         0       2       0       0       0       0       0       0       0       0       0       0       0       0       0       0       0
      Locals:         0       0       0       0       0       0       0       0       0       0       0       0       0       0       0       0       0
      Temps:          0       0       0       0       0       0       0       0       0       0       0       0       0       0       0       0       0
      Totals:         0       2       0       0       0       0       0       0       0       0       0       0       0       0       0       0       0
Total ram usage:        2 bytes
 Hardware stack levels used:    1
 Hardware stack levels required when called:    7
 This function calls:
		Nothing
 This function is called by:
		_EUSART1_Initialize
 This function uses a non-reentrant model


 *************** function _CCP5_Initialize *****************
 Defined at:
		line 49 in file "mcc_generated_files/ccp5.c"
 Parameters:    Size  Location     Type
		None
 Auto vars:     Size  Location     Type
		None
 Return value:  Size  Location     Type
                  1    wreg      void 
 Registers used:
		wreg, status,2
 Tracked objects:
		On entry : 
		On exit  : 
		Unchanged: 
 Data sizes:     COMRAM   BANK0   BANK1   BANK2   BANK3   BANK4   BANK5   BANK6   BANK7   BANK8   BANK9  BANK10  BANK11  BANK12  BANK13  BANK14  BANK15
      Params:         0       0       0       0       0       0       0       0       0       0       0       0       0       0       0       0       0
      Locals:         0       0       0       0       0       0       0       0       0       0       0       0       0       0       0       0       0
      Temps:          0       0       0       0       0       0       0       0       0       0       0       0       0       0       0       0       0
      Totals:         0       0       0       0       0       0       0       0       0       0       0       0       0       0       0       0       0
Total ram usage:        0 bytes
 Hardware stack levels used:    1
 Hardware stack levels required when called:    7
 This function calls:
		Nothing
 This function is called by:
		_SYSTEM_Initialize
 This function uses a non-reentrant model


 *************** function _ADC_Initialize *****************
 Defined at:
		line 60 in file "mcc_generated_files/adc.c"
 Parameters:    Size  Location     Type
		None
 Auto vars:     Size  Location     Type
		None
 Return value:  Size  Location     Type
                  1    wreg      void 
 Registers used:
		wreg, status,2
 Tracked objects:
		On entry : 
		On exit  : 
		Unchanged: 
 Data sizes:     COMRAM   BANK0   BANK1   BANK2   BANK3   BANK4   BANK5   BANK6   BANK7   BANK8   BANK9  BANK10  BANK11  BANK12  BANK13  BANK14  BANK15
      Params:         0       0       0       0       0       0       0       0       0       0       0       0       0       0       0       0       0
      Locals:         0       0       0       0       0       0       0       0       0       0       0       0       0       0       0       0       0
      Temps:          0       0       0       0       0       0       0       0       0       0       0       0       0       0       0       0       0
      Totals:         0       0       0       0       0       0       0       0       0       0       0       0       0       0       0       0       0
Total ram usage:        0 bytes
 Hardware stack levels used:    1
 Hardware stack levels required when called:    7
 This function calls:
		Nothing
 This function is called by:
		_SYSTEM_Initialize
 This function uses a non-reentrant model


 *************** function _LORAWAN_SetNetworkSessionKey *****************
 Defined at:
		line 379 in file "mcc_generated_files/LoRaWAN/lorawan.c"
 Parameters:    Size  Location     Type
  networkSessi    2   11[BANK0 ] PTR unsigned char 
		 -> nwkSKey(16), 
 Auto vars:     Size  Location     Type
		None
 Return value:  Size  Location     Type
                  1    wreg      void 
 Registers used:
		wreg, fsr0l, fsr0h, fsr2l, fsr2h, status,2, status,0, tblptrl, tblptrh, tblptru, cstack
 Tracked objects:
		On entry : 
		On exit  : 
		Unchanged: 
 Data sizes:     COMRAM   BANK0   BANK1   BANK2   BANK3   BANK4   BANK5   BANK6   BANK7   BANK8   BANK9  BANK10  BANK11  BANK12  BANK13  BANK14  BANK15
      Params:         0       2       0       0       0       0       0       0       0       0       0       0       0       0       0       0       0
      Locals:         0       0       0       0       0       0       0       0       0       0       0       0       0       0       0       0       0
      Temps:          0       0       0       0       0       0       0       0       0       0       0       0       0       0       0       0       0
      Totals:         0       2       0       0       0       0       0       0       0       0       0       0       0       0       0       0       0
Total ram usage:        2 bytes
 Hardware stack levels used:    1
 Hardware stack levels required when called:    8
 This function calls:
		_memcpy
 This function is called by:
		_main
 This function uses a non-reentrant model


 *************** function _LORAWAN_SetDeviceAddress *****************
 Defined at:
		line 367 in file "mcc_generated_files/LoRaWAN/lorawan.c"
 Parameters:    Size  Location     Type
  deviceAddres    4    0[BANK0 ] unsigned long 
 Auto vars:     Size  Location     Type
		None
 Return value:  Size  Location     Type
                  1    wreg      void 
 Registers used:
		None
 Tracked objects:
		On entry : 
		On exit  : 
		Unchanged: 
 Data sizes:     COMRAM   BANK0   BANK1   BANK2   BANK3   BANK4   BANK5   BANK6   BANK7   BANK8   BANK9  BANK10  BANK11  BANK12  BANK13  BANK14  BANK15
      Params:         0       4       0       0       0       0       0       0       0       0       0       0       0       0       0       0       0
      Locals:         0       0       0       0       0       0       0       0       0       0       0       0       0       0       0       0       0
      Temps:          0       0       0       0       0       0       0       0       0       0       0       0       0       0       0       0       0
      Totals:         0       4       0       0       0       0       0       0       0       0       0       0       0       0       0       0       0
Total ram usage:        4 bytes
 Hardware stack levels used:    1
 Hardware stack levels required when called:    7
 This function calls:
		Nothing
 This function is called by:
		_main
 This function uses a non-reentrant model


 *************** function _LORAWAN_SetApplicationSessionKey *****************
 Defined at:
		line 394 in file "mcc_generated_files/LoRaWAN/lorawan.c"
 Parameters:    Size  Location     Type
  applicationS    2   11[BANK0 ] PTR unsigned char 
		 -> appSKey(16), 
 Auto vars:     Size  Location     Type
		None
 Return value:  Size  Location     Type
                  1    wreg      void 
 Registers used:
		wreg, fsr0l, fsr0h, fsr2l, fsr2h, status,2, status,0, tblptrl, tblptrh, tblptru, cstack
 Tracked objects:
		On entry : 
		On exit  : 
		Unchanged: 
 Data sizes:     COMRAM   BANK0   BANK1   BANK2   BANK3   BANK4   BANK5   BANK6   BANK7   BANK8   BANK9  BANK10  BANK11  BANK12  BANK13  BANK14  BANK15
      Params:         0       2       0       0       0       0       0       0       0       0       0       0       0       0       0       0       0
      Locals:         0       0       0       0       0       0       0       0       0       0       0       0       0       0       0       0       0
      Temps:          0       0       0       0       0       0       0       0       0       0       0       0       0       0       0       0       0
      Totals:         0       2       0       0       0       0       0       0       0       0       0       0       0       0       0       0       0
Total ram usage:        2 bytes
 Hardware stack levels used:    1
 Hardware stack levels required when called:    8
 This function calls:
		_memcpy
 This function is called by:
		_main
 This function uses a non-reentrant model


 *************** function _LORAWAN_Mainloop *****************
 Defined at:
		line 2238 in file "mcc_generated_files/LoRaWAN/lorawan.c"
 Parameters:    Size  Location     Type
		None
 Auto vars:     Size  Location     Type
		None
 Return value:  Size  Location     Type
                  1    wreg      void 
 Registers used:
		wreg, fsr0l, fsr0h, fsr1l, fsr1h, fsr2l, fsr2h, status,2, status,0, pclath, btemp, btemp+1, btemp+2, btemp+4, btemp+5, btemp+6, btemp+7, btemp+8, btemp+9, btemp+10, btemp+11, tosl, tblptrl, tblptrh, tblptru, prodl, prodh, cstack
 Tracked objects:
		On entry : 
		On exit  : 
		Unchanged: 
 Data sizes:     COMRAM   BANK0   BANK1   BANK2   BANK3   BANK4   BANK5   BANK6   BANK7   BANK8   BANK9  BANK10  BANK11  BANK12  BANK13  BANK14  BANK15
      Params:         0       0       0       0       0       0       0       0       0       0       0       0       0       0       0       0       0
      Locals:         0       0       0       0       0       0       0       0       0       0       0       0       0       0       0       0       0
      Temps:          0       0       0       0       0       0       0       0       0       0       0       0       0       0       0       0       0
      Totals:         0       0       0       0       0       0       0       0       0       0       0       0       0       0       0       0       0
Total ram usage:        0 bytes
 Hardware stack levels used:    1
 Hardware stack levels required when called:   18
 This function calls:
		_INTERRUPT_GetDioStatus
		_RADIO_DIO0
		_RADIO_DIO1
		_RADIO_DIO2
		_RADIO_DIO3
		_RADIO_DIO4
		_RADIO_DIO5
		_SwTimersExecute
 This function is called by:
		_main
 This function uses a non-reentrant model


 *************** function _SwTimersExecute *****************
 Defined at:
		line 260 in file "mcc_generated_files/LoRaWAN/sw_timer.c"
 Parameters:    Size  Location     Type
		None
 Auto vars:     Size  Location     Type
  i               1  126[BANK0 ] unsigned char 
 Return value:  Size  Location     Type
                  1    wreg      void 
 Registers used:
		wreg, fsr0l, fsr0h, fsr1l, fsr1h, fsr2l, fsr2h, status,2, status,0, pclath, btemp, btemp+1, btemp+2, btemp+4, btemp+5, btemp+6, btemp+7, btemp+8, btemp+9, btemp+10, btemp+11, tosl, tblptrl, tblptrh, tblptru, prodl, prodh, cstack
 Tracked objects:
		On entry : 
		On exit  : 
		Unchanged: 
 Data sizes:     COMRAM   BANK0   BANK1   BANK2   BANK3   BANK4   BANK5   BANK6   BANK7   BANK8   BANK9  BANK10  BANK11  BANK12  BANK13  BANK14  BANK15
      Params:         0       0       0       0       0       0       0       0       0       0       0       0       0       0       0       0       0
      Locals:         0       1       0       0       0       0       0       0       0       0       0       0       0       0       0       0       0
      Temps:          0       4       0       0       0       0       0       0       0       0       0       0       0       0       0       0       0
      Totals:         0       5       0       0       0       0       0       0       0       0       0       0       0       0       0       0       0
Total ram usage:        5 bytes
 Hardware stack levels used:    1
 Hardware stack levels required when called:   17
 This function calls:
		Absolute function
		_AckRetransmissionCallback
		_AutomaticReplyCallback
		_DutyCycleCallback
		_LORAWAN_LinkCheckCallback
		_LORAWAN_ReceiveWindow1Callback
		_LORAWAN_ReceiveWindow2Callback
		_RADIO_RxFSKTimeout
		_RADIO_WatchdogTimeout
		_UnconfirmedTransmissionCallback
		_UpdateJoinSuccessState
 This function is called by:
		_LORAWAN_Mainloop
 This function uses a non-reentrant model


 *************** function _DutyCycleCallback *****************
 Defined at:
		line 1221 in file "mcc_generated_files/LoRaWAN/lorawan_eu.c"
 Parameters:    Size  Location     Type
  param           1  [STACK] unsigned char 
 Auto vars:     Size  Location     Type
  minim           4  [STACK] unsigned long 
  i               1  [STACK] unsigned char 
  found           1  [STACK] unsigned char 
 Return value:  Size  Location     Type
                  1  [STACK] void 
 Registers used:
		wreg, fsr1l, fsr1h, fsr2l, fsr2h, status,2, status,0, btemp, btemp+4, btemp+5, btemp+6, btemp+7, btemp+8, btemp+9, btemp+10, btemp+11, prodl, prodh, cstack
 Tracked objects:
		On entry : 
		On exit  : 
		Unchanged: 
 Data sizes:     COMRAM   BANK0   BANK1   BANK2   BANK3   BANK4   BANK5   BANK6   BANK7   BANK8   BANK9  BANK10  BANK11  BANK12  BANK13  BANK14  BANK15
      Params:         0       0       0       0       0       0       0       0       0       0       0       0       0       0       0       0       0
      Locals:         0       0       0       0       0       0       0       0       0       0       0       0       0       0       0       0       0
      Temps:          0       0       0       0       0       0       0       0       0       0       0       0       0       0       0       0       0
      Totals:         0       0       0       0       0       0       0       0       0       0       0       0       0       0       0       0       0
Total ram usage:        0 bytes
 Hardware stack levels used:    1
 Hardware stack levels required when called:   11
 This function calls:
		_SwTimerSetTimeout
		_SwTimerStart
		___lldiv
 This function is called by:
		_SetCallbackSoftwareTimers
		_SwTimersExecute
 This function uses a reentrant model


 *************** function _UpdateJoinSuccessState *****************
 Defined at:
		line 1041 in file "mcc_generated_files/LoRaWAN/lorawan.c"
 Parameters:    Size  Location     Type
  param           1  [STACK] unsigned char 
 Auto vars:     Size  Location     Type
		None
 Return value:  Size  Location     Type
                  1  [STACK] void 
 Registers used:
		wreg, fsr1l, fsr1h, fsr2l, fsr2h, status,2, status,0, pclath, btemp+8, btemp+9, btemp+10, btemp+11, tosl, prodl, prodh, cstack
 Tracked objects:
		On entry : 
		On exit  : 
		Unchanged: 
 Data sizes:     COMRAM   BANK0   BANK1   BANK2   BANK3   BANK4   BANK5   BANK6   BANK7   BANK8   BANK9  BANK10  BANK11  BANK12  BANK13  BANK14  BANK15
      Params:         0       0       0       0       0       0       0       0       0       0       0       0       0       0       0       0       0
      Locals:         0       0       0       0       0       0       0       0       0       0       0       0       0       0       0       0       0
      Temps:          0       0       0       0       0       0       0       0       0       0       0       0       0       0       0       0       0
      Totals:         0       0       0       0       0       0       0       0       0       0       0       0       0       0       0       0       0
Total ram usage:        0 bytes
 Hardware stack levels used:    1
 Hardware stack levels required when called:   11
 This function calls:
		_RxJoinResponse
		_SwTimerSetTimeout
		_SwTimerStart
		___lldiv
 This function is called by:
		_SetCallbackSoftwareTimers
		_LORAWAN_RxDone
		_SwTimersExecute
 This function uses a reentrant model


 *************** function _AutomaticReplyCallback *****************
 Defined at:
		line 1017 in file "mcc_generated_files/LoRaWAN/lorawan.c"
 Parameters:    Size  Location     Type
  param           1  [STACK] unsigned char 
 Auto vars:     Size  Location     Type
		None
 Return value:  Size  Location     Type
                  1  [STACK] void 
 Registers used:
		wreg, fsr0l, fsr0h, fsr2l, fsr2h, status,2, status,0, tblptrl, tblptrh, tblptru, prodl, prodh, cstack
 Tracked objects:
		On entry : 
		On exit  : 
		Unchanged: 
 Data sizes:     COMRAM   BANK0   BANK1   BANK2   BANK3   BANK4   BANK5   BANK6   BANK7   BANK8   BANK9  BANK10  BANK11  BANK12  BANK13  BANK14  BANK15
      Params:         0       0       0       0       0       0       0       0       0       0       0       0       0       0       0       0       0
      Locals:         0       0       0       0       0       0       0       0       0       0       0       0       0       0       0       0       0
      Temps:          0       0       0       0       0       0       0       0       0       0       0       0       0       0       0       0       0
      Totals:         0       0       0       0       0       0       0       0       0       0       0       0       0       0       0       0       0
Total ram usage:        0 bytes
 Hardware stack levels used:    1
 Hardware stack levels required when called:   14
 This function calls:
		_LORAWAN_Send
 This function is called by:
		_SetCallbackSoftwareTimers
		_SwTimersExecute
 This function uses a reentrant model


 *************** function _AckRetransmissionCallback *****************
 Defined at:
		line 934 in file "mcc_generated_files/LoRaWAN/lorawan.c"
 Parameters:    Size  Location     Type
  param           1  [STACK] unsigned char 
 Auto vars:     Size  Location     Type
  maximumPacke    1  [STACK] unsigned char 
 Return value:  Size  Location     Type
                  1  [STACK] void 
 Registers used:
		wreg, fsr0l, fsr0h, fsr1l, fsr1h, fsr2l, fsr2h, status,2, status,0, pclath, btemp+1, btemp+2, btemp+10, btemp+11, tosl, tblptrl, tblptrh, tblptru, prodl, prodh, cstack
 Tracked objects:
		On entry : 
		On exit  : 
		Unchanged: 
 Data sizes:     COMRAM   BANK0   BANK1   BANK2   BANK3   BANK4   BANK5   BANK6   BANK7   BANK8   BANK9  BANK10  BANK11  BANK12  BANK13  BANK14  BANK15
      Params:         0       0       0       0       0       0       0       0       0       0       0       0       0       0       0       0       0
      Locals:         0       0       0       0       0       0       0       0       0       0       0       0       0       0       0       0       0
      Temps:          0       0       0       0       0       0       0       0       0       0       0       0       0       0       0       0       0
      Totals:         0       0       0       0       0       0       0       0       0       0       0       0       0       0       0       0       0
Total ram usage:        0 bytes
 Hardware stack levels used:    1
 Hardware stack levels required when called:   13
 This function calls:
		_FindSmallestDataRate
		_LORAWAN_GetMaxPayloadSize
		_RADIO_Transmit
		_ResetParametersForConfirmedTransmission
		_RxData
		_SelectChannelForTransmission
		_UpdateRetransmissionAckTimeoutState
 This function is called by:
		_SetCallbackSoftwareTimers
		_SwTimersExecute
 This function uses a reentrant model


 *************** function _LORAWAN_LinkCheckCallback *****************
 Defined at:
		line 881 in file "mcc_generated_files/LoRaWAN/lorawan.c"
 Parameters:    Size  Location     Type
  param           1  [STACK] unsigned char 
 Auto vars:     Size  Location     Type
  iCtr            1  [STACK] unsigned char 
 Return value:  Size  Location     Type
                  1  [STACK] void 
 Registers used:
		wreg, fsr1l, fsr1h, fsr2l, fsr2h, status,2, status,0, btemp, btemp+8, btemp+9, btemp+10, btemp+11, prodl, prodh, cstack
 Tracked objects:
		On entry : 
		On exit  : 
		Unchanged: 
 Data sizes:     COMRAM   BANK0   BANK1   BANK2   BANK3   BANK4   BANK5   BANK6   BANK7   BANK8   BANK9  BANK10  BANK11  BANK12  BANK13  BANK14  BANK15
      Params:         0       0       0       0       0       0       0       0       0       0       0       0       0       0       0       0       0
      Locals:         0       0       0       0       0       0       0       0       0       0       0       0       0       0       0       0       0
      Temps:          0       0       0       0       0       0       0       0       0       0       0       0       0       0       0       0       0
      Totals:         0       0       0       0       0       0       0       0       0       0       0       0       0       0       0       0       0
Total ram usage:        0 bytes
 Hardware stack levels used:    1
 Hardware stack levels required when called:   11
 This function calls:
		_SwTimerSetTimeout
		_SwTimerStart
		___lldiv
 This function is called by:
		_SetCallbackSoftwareTimers
		_SwTimersExecute
 This function uses a reentrant model


 *************** function _LORAWAN_ReceiveWindow1Callback *****************
 Defined at:
		line 796 in file "mcc_generated_files/LoRaWAN/lorawan.c"
 Parameters:    Size  Location     Type
  param           1  [STACK] unsigned char 
 Auto vars:     Size  Location     Type
  freq            4  [STACK] unsigned long 
 Return value:  Size  Location     Type
                  1  [STACK] void 
 Registers used:
		wreg, fsr0l, fsr0h, fsr1l, fsr1h, fsr2l, fsr2h, status,2, status,0, btemp+8, btemp+9, btemp+10, btemp+11, tblptrl, tblptrh, tblptru, prodl, prodh, cstack
 Tracked objects:
		On entry : 
		On exit  : 
		Unchanged: 
 Data sizes:     COMRAM   BANK0   BANK1   BANK2   BANK3   BANK4   BANK5   BANK6   BANK7   BANK8   BANK9  BANK10  BANK11  BANK12  BANK13  BANK14  BANK15
      Params:         0       0       0       0       0       0       0       0       0       0       0       0       0       0       0       0       0
      Locals:         0       0       0       0       0       0       0       0       0       0       0       0       0       0       0       0       0
      Temps:          0       0       0       0       0       0       0       0       0       0       0       0       0       0       0       0       0
      Totals:         0       0       0       0       0       0       0       0       0       0       0       0       0       0       0       0       0
Total ram usage:        0 bytes
 Hardware stack levels used:    1
 Hardware stack levels required when called:   13
 This function calls:
		_ConfigureRadioRx
		_GetRx1Freq
		_RADIO_ReceiveStart
		_RADIO_ReceiveStop
		_RADIO_ReleaseData
 This function is called by:
		_SetCallbackSoftwareTimers
		_SwTimersExecute
 This function uses a reentrant model


 *************** function _LORAWAN_ReceiveWindow2Callback *****************
 Defined at:
		line 827 in file "mcc_generated_files/LoRaWAN/lorawan.c"
 Parameters:    Size  Location     Type
  param           1  [STACK] unsigned char 
 Auto vars:     Size  Location     Type
		None
 Return value:  Size  Location     Type
                  1  [STACK] void 
 Registers used:
		wreg, fsr0l, fsr0h, fsr2l, fsr2h, status,2, status,0, pclath, btemp+1, btemp+2, btemp+11, tosl, tblptrl, tblptrh, tblptru, prodl, prodh, cstack
 Tracked objects:
		On entry : 
		On exit  : 
		Unchanged: 
 Data sizes:     COMRAM   BANK0   BANK1   BANK2   BANK3   BANK4   BANK5   BANK6   BANK7   BANK8   BANK9  BANK10  BANK11  BANK12  BANK13  BANK14  BANK15
      Params:         0       0       0       0       0       0       0       0       0       0       0       0       0       0       0       0       0
      Locals:         0       0       0       0       0       0       0       0       0       0       0       0       0       0       0       0       0
      Temps:          0       0       0       0       0       0       0       0       0       0       0       0       0       0       0       0       0
      Totals:         0       0       0       0       0       0       0       0       0       0       0       0       0       0       0       0       0
Total ram usage:        0 bytes
 Hardware stack levels used:    1
 Hardware stack levels required when called:   14
 This function calls:
		_ConfigureRadioRx
		_LORAWAN_EnterContinuousReceive
		_RADIO_GetStatus
		_RADIO_ReceiveStart
		_RADIO_ReceiveStop
		_RADIO_ReleaseData
		_ResetParametersForConfirmedTransmission
		_ResetParametersForUnconfirmedTransmission
		_RxData
 This function is called by:
		_LORAWAN_RxTimeout
		_SetCallbackSoftwareTimers
		_SwTimersExecute
 This function uses a reentrant model


 *************** function _RADIO_WatchdogTimeout *****************
 Defined at:
		line 1408 in file "mcc_generated_files/LoRaWAN/radio_driver_SX1276.c"
 Parameters:    Size  Location     Type
  param           1  [STACK] unsigned char 
 Auto vars:     Size  Location     Type
		None
 Return value:  Size  Location     Type
                  1  [STACK] void 
 Registers used:
		wreg, fsr0l, fsr0h, fsr2l, fsr2h, status,2, status,0, pclath, btemp+1, btemp+2, btemp+11, tosl, tblptrl, tblptrh, tblptru, prodl, prodh, cstack
 Tracked objects:
		On entry : 
		On exit  : 
		Unchanged: 
 Data sizes:     COMRAM   BANK0   BANK1   BANK2   BANK3   BANK4   BANK5   BANK6   BANK7   BANK8   BANK9  BANK10  BANK11  BANK12  BANK13  BANK14  BANK15
      Params:         0       0       0       0       0       0       0       0       0       0       0       0       0       0       0       0       0
      Locals:         0       0       0       0       0       0       0       0       0       0       0       0       0       0       0       0       0
      Temps:          0       0       0       0       0       0       0       0       0       0       0       0       0       0       0       0       0
      Totals:         0       0       0       0       0       0       0       0       0       0       0       0       0       0       0       0       0
Total ram usage:        0 bytes
 Hardware stack levels used:    1
 Hardware stack levels required when called:   16
 This function calls:
		_LORAWAN_RxTimeout
		_LORAWAN_TxDone
		_RADIO_WriteMode
 This function is called by:
		_RADIO_Init
		_SwTimersExecute
 This function uses a reentrant model


 *************** function _RADIO_RxFSKTimeout *****************
 Defined at:
		line 1392 in file "mcc_generated_files/LoRaWAN/radio_driver_SX1276.c"
 Parameters:    Size  Location     Type
  param           1  [STACK] unsigned char 
 Auto vars:     Size  Location     Type
  irqFlags        1  [STACK] unsigned char 
 Return value:  Size  Location     Type
                  1  [STACK] void 
 Registers used:
		wreg, fsr0l, fsr0h, fsr1l, fsr1h, fsr2l, fsr2h, status,2, status,0, pclath, btemp+1, btemp+2, btemp+11, tosl, tblptrl, tblptrh, tblptru, prodl, prodh, cstack
 Tracked objects:
		On entry : 
		On exit  : 
		Unchanged: 
 Data sizes:     COMRAM   BANK0   BANK1   BANK2   BANK3   BANK4   BANK5   BANK6   BANK7   BANK8   BANK9  BANK10  BANK11  BANK12  BANK13  BANK14  BANK15
      Params:         0       0       0       0       0       0       0       0       0       0       0       0       0       0       0       0       0
      Locals:         0       0       0       0       0       0       0       0       0       0       0       0       0       0       0       0       0
      Temps:          0       0       0       0       0       0       0       0       0       0       0       0       0       0       0       0       0
      Totals:         0       0       0       0       0       0       0       0       0       0       0       0       0       0       0       0       0
Total ram usage:        0 bytes
 Hardware stack levels used:    1
 Hardware stack levels required when called:   16
 This function calls:
		_LORAWAN_RxTimeout
		_RADIO_RegisterRead
		_RADIO_WriteMode
		_SwTimerStop
 This function is called by:
		_RADIO_Init
		_SwTimersExecute
 This function uses a reentrant model


 *************** function _UnconfirmedTransmissionCallback *****************
 Defined at:
		line 997 in file "mcc_generated_files/LoRaWAN/lorawan.c"
 Parameters:    Size  Location     Type
  param           1  [STACK] unsigned char 
 Auto vars:     Size  Location     Type
		None
 Return value:  Size  Location     Type
                  1  [STACK] void 
 Registers used:
		wreg, fsr0l, fsr0h, fsr2l, fsr2h, status,2, status,0, pclath, btemp+1, btemp+2, tosl, tblptrl, tblptrh, tblptru, prodl, prodh, cstack
 Tracked objects:
		On entry : 
		On exit  : 
		Unchanged: 
 Data sizes:     COMRAM   BANK0   BANK1   BANK2   BANK3   BANK4   BANK5   BANK6   BANK7   BANK8   BANK9  BANK10  BANK11  BANK12  BANK13  BANK14  BANK15
      Params:         0       0       0       0       0       0       0       0       0       0       0       0       0       0       0       0       0
      Locals:         0       0       0       0       0       0       0       0       0       0       0       0       0       0       0       0       0
      Temps:          0       0       0       0       0       0       0       0       0       0       0       0       0       0       0       0       0
      Totals:         0       0       0       0       0       0       0       0       0       0       0       0       0       0       0       0       0
Total ram usage:        0 bytes
 Hardware stack levels used:    1
 Hardware stack levels required when called:   13
 This function calls:
		_RADIO_Transmit
		_ResetParametersForUnconfirmedTransmission
		_RxData
		_SelectChannelForTransmission
 This function is called by:
		_SetCallbackSoftwareTimers
		_SwTimersExecute
 This function uses a reentrant model


 *************** function _GetRx1Freq *****************
 Defined at:
		line 883 in file "mcc_generated_files/LoRaWAN/lorawan_eu.c"
 Parameters:    Size  Location     Type
		None
 Auto vars:     Size  Location     Type
		None
 Return value:  Size  Location     Type
                  4    0[BANK0 ] unsigned long 
 Registers used:
		None
 Tracked objects:
		On entry : 
		On exit  : 
		Unchanged: 
 Data sizes:     COMRAM   BANK0   BANK1   BANK2   BANK3   BANK4   BANK5   BANK6   BANK7   BANK8   BANK9  BANK10  BANK11  BANK12  BANK13  BANK14  BANK15
      Params:         0       4       0       0       0       0       0       0       0       0       0       0       0       0       0       0       0
      Locals:         0       0       0       0       0       0       0       0       0       0       0       0       0       0       0       0       0
      Temps:          0       0       0       0       0       0       0       0       0       0       0       0       0       0       0       0       0
      Totals:         0       4       0       0       0       0       0       0       0       0       0       0       0       0       0       0       0
Total ram usage:        4 bytes
 Hardware stack levels used:    1
 Hardware stack levels required when called:    7
 This function calls:
		Nothing
 This function is called by:
		_LORAWAN_ReceiveWindow1Callback
 This function uses a non-reentrant model


 *************** function _RADIO_DIO5 *****************
 Defined at:
		line 1344 in file "mcc_generated_files/LoRaWAN/radio_driver_SX1276.c"
 Parameters:    Size  Location     Type
		None
 Auto vars:     Size  Location     Type
  dioMapping      1    6[BANK0 ] unsigned char 
 Return value:  Size  Location     Type
                  1    wreg      void 
 Registers used:
		wreg, status,2, status,0, cstack
 Tracked objects:
		On entry : 
		On exit  : 
		Unchanged: 
 Data sizes:     COMRAM   BANK0   BANK1   BANK2   BANK3   BANK4   BANK5   BANK6   BANK7   BANK8   BANK9  BANK10  BANK11  BANK12  BANK13  BANK14  BANK15
      Params:         0       0       0       0       0       0       0       0       0       0       0       0       0       0       0       0       0
      Locals:         0       1       0       0       0       0       0       0       0       0       0       0       0       0       0       0       0
      Temps:          0       1       0       0       0       0       0       0       0       0       0       0       0       0       0       0       0
      Totals:         0       2       0       0       0       0       0       0       0       0       0       0       0       0       0       0       0
Total ram usage:        2 bytes
 Hardware stack levels used:    1
 Hardware stack levels required when called:   11
 This function calls:
		_RADIO_RegisterRead
		_RADIO_UnhandledInterrupt
 This function is called by:
		_LORAWAN_Mainloop
 This function uses a non-reentrant model


 *************** function _RADIO_DIO4 *****************
 Defined at:
		line 1321 in file "mcc_generated_files/LoRaWAN/radio_driver_SX1276.c"
 Parameters:    Size  Location     Type
		None
 Auto vars:     Size  Location     Type
  dioMapping      1    7[BANK0 ] unsigned char 
 Return value:  Size  Location     Type
                  1    wreg      void 
 Registers used:
		wreg, status,2, status,0, cstack
 Tracked objects:
		On entry : 
		On exit  : 
		Unchanged: 
 Data sizes:     COMRAM   BANK0   BANK1   BANK2   BANK3   BANK4   BANK5   BANK6   BANK7   BANK8   BANK9  BANK10  BANK11  BANK12  BANK13  BANK14  BANK15
      Params:         0       0       0       0       0       0       0       0       0       0       0       0       0       0       0       0       0
      Locals:         0       1       0       0       0       0       0       0       0       0       0       0       0       0       0       0       0
      Temps:          0       2       0       0       0       0       0       0       0       0       0       0       0       0       0       0       0
      Totals:         0       3       0       0       0       0       0       0       0       0       0       0       0       0       0       0       0
Total ram usage:        3 bytes
 Hardware stack levels used:    1
 Hardware stack levels required when called:   11
 This function calls:
		_RADIO_RegisterRead
		_RADIO_UnhandledInterrupt
 This function is called by:
		_LORAWAN_Mainloop
 This function uses a non-reentrant model


 *************** function _RADIO_DIO3 *****************
 Defined at:
		line 1298 in file "mcc_generated_files/LoRaWAN/radio_driver_SX1276.c"
 Parameters:    Size  Location     Type
		None
 Auto vars:     Size  Location     Type
  dioMapping      1    6[BANK0 ] unsigned char 
 Return value:  Size  Location     Type
                  1    wreg      void 
 Registers used:
		wreg, status,2, status,0, cstack
 Tracked objects:
		On entry : 
		On exit  : 
		Unchanged: 
 Data sizes:     COMRAM   BANK0   BANK1   BANK2   BANK3   BANK4   BANK5   BANK6   BANK7   BANK8   BANK9  BANK10  BANK11  BANK12  BANK13  BANK14  BANK15
      Params:         0       0       0       0       0       0       0       0       0       0       0       0       0       0       0       0       0
      Locals:         0       1       0       0       0       0       0       0       0       0       0       0       0       0       0       0       0
      Temps:          0       1       0       0       0       0       0       0       0       0       0       0       0       0       0       0       0
      Totals:         0       2       0       0       0       0       0       0       0       0       0       0       0       0       0       0       0
Total ram usage:        2 bytes
 Hardware stack levels used:    1
 Hardware stack levels required when called:   11
 This function calls:
		_RADIO_RegisterRead
		_RADIO_UnhandledInterrupt
 This function is called by:
		_LORAWAN_Mainloop
 This function uses a non-reentrant model


 *************** function _RADIO_DIO2 *****************
 Defined at:
		line 1268 in file "mcc_generated_files/LoRaWAN/radio_driver_SX1276.c"
 Parameters:    Size  Location     Type
		None
 Auto vars:     Size  Location     Type
  dioMapping      1   28[BANK0 ] unsigned char 
  opMode          1   27[BANK0 ] unsigned char 
 Return value:  Size  Location     Type
                  1    wreg      void 
 Registers used:
		wreg, status,2, status,0, cstack
 Tracked objects:
		On entry : 
		On exit  : 
		Unchanged: 
 Data sizes:     COMRAM   BANK0   BANK1   BANK2   BANK3   BANK4   BANK5   BANK6   BANK7   BANK8   BANK9  BANK10  BANK11  BANK12  BANK13  BANK14  BANK15
      Params:         0       0       0       0       0       0       0       0       0       0       0       0       0       0       0       0       0
      Locals:         0       2       0       0       0       0       0       0       0       0       0       0       0       0       0       0       0
      Temps:          0       1       0       0       0       0       0       0       0       0       0       0       0       0       0       0       0
      Totals:         0       3       0       0       0       0       0       0       0       0       0       0       0       0       0       0       0
Total ram usage:        3 bytes
 Hardware stack levels used:    1
 Hardware stack levels required when called:   12
 This function calls:
		_RADIO_FHSSChangeChannel
		_RADIO_RegisterRead
		_RADIO_UnhandledInterrupt
 This function is called by:
		_LORAWAN_Mainloop
 This function uses a non-reentrant model


 *************** function _RADIO_DIO1 *****************
 Defined at:
		line 1231 in file "mcc_generated_files/LoRaWAN/radio_driver_SX1276.c"
 Parameters:    Size  Location     Type
		None
 Auto vars:     Size  Location     Type
  dioMapping      1  108[BANK0 ] unsigned char 
 Return value:  Size  Location     Type
                  1    wreg      void 
 Registers used:
		wreg, fsr0l, fsr0h, fsr2l, fsr2h, status,2, status,0, pclath, btemp+1, btemp+2, btemp+11, tosl, tblptrl, tblptrh, tblptru, prodl, prodh, cstack
 Tracked objects:
		On entry : 
		On exit  : 
		Unchanged: 
 Data sizes:     COMRAM   BANK0   BANK1   BANK2   BANK3   BANK4   BANK5   BANK6   BANK7   BANK8   BANK9  BANK10  BANK11  BANK12  BANK13  BANK14  BANK15
      Params:         0       0       0       0       0       0       0       0       0       0       0       0       0       0       0       0       0
      Locals:         0       1       0       0       0       0       0       0       0       0       0       0       0       0       0       0       0
      Temps:          0       1       0       0       0       0       0       0       0       0       0       0       0       0       0       0       0
      Totals:         0       2       0       0       0       0       0       0       0       0       0       0       0       0       0       0       0
Total ram usage:        2 bytes
 Hardware stack levels used:    1
 Hardware stack levels required when called:   17
 This function calls:
		_RADIO_FHSSChangeChannel
		_RADIO_RegisterRead
		_RADIO_RxTimeout
		_RADIO_UnhandledInterrupt
 This function is called by:
		_LORAWAN_Mainloop
 This function uses a non-reentrant model


 *************** function _RADIO_RxTimeout *****************
 Defined at:
		line 1066 in file "mcc_generated_files/LoRaWAN/radio_driver_SX1276.c"
 Parameters:    Size  Location     Type
		None
 Auto vars:     Size  Location     Type
		None
 Return value:  Size  Location     Type
                  1    wreg      void 
 Registers used:
		wreg, fsr0l, fsr0h, fsr2l, fsr2h, status,2, status,0, pclath, btemp+1, btemp+2, btemp+11, tosl, tblptrl, tblptrh, tblptru, prodl, prodh, cstack
 Tracked objects:
		On entry : 
		On exit  : 
		Unchanged: 
 Data sizes:     COMRAM   BANK0   BANK1   BANK2   BANK3   BANK4   BANK5   BANK6   BANK7   BANK8   BANK9  BANK10  BANK11  BANK12  BANK13  BANK14  BANK15
      Params:         0       0       0       0       0       0       0       0       0       0       0       0       0       0       0       0       0
      Locals:         0       0       0       0       0       0       0       0       0       0       0       0       0       0       0       0       0
      Temps:          0       0       0       0       0       0       0       0       0       0       0       0       0       0       0       0       0
      Totals:         0       0       0       0       0       0       0       0       0       0       0       0       0       0       0       0       0
Total ram usage:        0 bytes
 Hardware stack levels used:    1
 Hardware stack levels required when called:   16
 This function calls:
		_LORAWAN_RxTimeout
		_RADIO_RegisterWrite
		_RADIO_WriteMode
		_SwTimerStop
 This function is called by:
		_RADIO_DIO1
 This function uses a non-reentrant model


 *************** function _RADIO_FHSSChangeChannel *****************
 Defined at:
		line 1158 in file "mcc_generated_files/LoRaWAN/radio_driver_SX1276.c"
 Parameters:    Size  Location     Type
		None
 Auto vars:     Size  Location     Type
  irqFlags        1   25[BANK0 ] unsigned char 
 Return value:  Size  Location     Type
                  1    wreg      void 
 Registers used:
		wreg, status,2, status,0, cstack
 Tracked objects:
		On entry : 
		On exit  : 
		Unchanged: 
 Data sizes:     COMRAM   BANK0   BANK1   BANK2   BANK3   BANK4   BANK5   BANK6   BANK7   BANK8   BANK9  BANK10  BANK11  BANK12  BANK13  BANK14  BANK15
      Params:         0       0       0       0       0       0       0       0       0       0       0       0       0       0       0       0       0
      Locals:         0       1       0       0       0       0       0       0       0       0       0       0       0       0       0       0       0
      Temps:          0       0       0       0       0       0       0       0       0       0       0       0       0       0       0       0       0
      Totals:         0       1       0       0       0       0       0       0       0       0       0       0       0       0       0       0       0
Total ram usage:        1 bytes
 Hardware stack levels used:    1
 Hardware stack levels required when called:   11
 This function calls:
		_RADIO_RegisterRead
		_RADIO_RegisterWrite
		_RADIO_WriteFrequency
 This function is called by:
		_RADIO_DIO1
		_RADIO_DIO2
 This function uses a non-reentrant model


 *************** function _RADIO_DIO0 *****************
 Defined at:
		line 1176 in file "mcc_generated_files/LoRaWAN/radio_driver_SX1276.c"
 Parameters:    Size  Location     Type
		None
 Auto vars:     Size  Location     Type
  opMode          1  152[BANK0 ] unsigned char 
  dioMapping      1  151[BANK0 ] unsigned char 
 Return value:  Size  Location     Type
                  1    wreg      void 
 Registers used:
		wreg, fsr0l, fsr0h, fsr1l, fsr1h, fsr2l, fsr2h, status,2, status,0, pclath, btemp+1, btemp+2, btemp+8, btemp+9, btemp+10, btemp+11, tosl, tblptrl, tblptrh, tblptru, prodl, prodh, cstack
 Tracked objects:
		On entry : 
		On exit  : 
		Unchanged: 
 Data sizes:     COMRAM   BANK0   BANK1   BANK2   BANK3   BANK4   BANK5   BANK6   BANK7   BANK8   BANK9  BANK10  BANK11  BANK12  BANK13  BANK14  BANK15
      Params:         0       0       0       0       0       0       0       0       0       0       0       0       0       0       0       0       0
      Locals:         0       2       0       0       0       0       0       0       0       0       0       0       0       0       0       0       0
      Temps:          0       2       0       0       0       0       0       0       0       0       0       0       0       0       0       0       0
      Totals:         0       4       0       0       0       0       0       0       0       0       0       0       0       0       0       0       0
Total ram usage:        4 bytes
 Hardware stack levels used:    1
 Hardware stack levels required when called:   17
 This function calls:
		_RADIO_FSKPacketSent
		_RADIO_FSKPayloadReady
		_RADIO_RegisterRead
		_RADIO_RxDone
		_RADIO_TxDone
		_RADIO_UnhandledInterrupt
 This function is called by:
		_LORAWAN_Mainloop
 This function uses a non-reentrant model


 *************** function _RADIO_UnhandledInterrupt *****************
 Defined at:
		line 1139 in file "mcc_generated_files/LoRaWAN/radio_driver_SX1276.c"
 Parameters:    Size  Location     Type
  modulation      1    wreg     enum E6984
 Auto vars:     Size  Location     Type
  modulation      1    4[BANK0 ] enum E6984
 Return value:  Size  Location     Type
                  1    wreg      void 
 Registers used:
		wreg, status,2, status,0, cstack
 Tracked objects:
		On entry : 
		On exit  : 
		Unchanged: 
 Data sizes:     COMRAM   BANK0   BANK1   BANK2   BANK3   BANK4   BANK5   BANK6   BANK7   BANK8   BANK9  BANK10  BANK11  BANK12  BANK13  BANK14  BANK15
      Params:         0       0       0       0       0       0       0       0       0       0       0       0       0       0       0       0       0
      Locals:         0       1       0       0       0       0       0       0       0       0       0       0       0       0       0       0       0
      Temps:          0       0       0       0       0       0       0       0       0       0       0       0       0       0       0       0       0
      Totals:         0       1       0       0       0       0       0       0       0       0       0       0       0       0       0       0       0
Total ram usage:        1 bytes
 Hardware stack levels used:    1
 Hardware stack levels required when called:   10
 This function calls:
		_RADIO_RegisterWrite
 This function is called by:
		_RADIO_DIO0
		_RADIO_DIO1
		_RADIO_DIO2
		_RADIO_DIO3
		_RADIO_DIO4
		_RADIO_DIO5
 This function uses a non-reentrant model


 *************** function _RADIO_TxDone *****************
 Defined at:
		line 1078 in file "mcc_generated_files/LoRaWAN/radio_driver_SX1276.c"
 Parameters:    Size  Location     Type
		None
 Auto vars:     Size  Location     Type
  timeOnAir       4  135[BANK0 ] unsigned long 
 Return value:  Size  Location     Type
                  1    wreg      void 
 Registers used:
		wreg, fsr0l, fsr0h, fsr2l, fsr2h, status,2, status,0, pclath, tosl, tblptrl, tblptrh, tblptru, prodl, prodh, cstack
 Tracked objects:
		On entry : 
		On exit  : 
		Unchanged: 
 Data sizes:     COMRAM   BANK0   BANK1   BANK2   BANK3   BANK4   BANK5   BANK6   BANK7   BANK8   BANK9  BANK10  BANK11  BANK12  BANK13  BANK14  BANK15
      Params:         0       0       0       0       0       0       0       0       0       0       0       0       0       0       0       0       0
      Locals:         0       8       0       0       0       0       0       0       0       0       0       0       0       0       0       0       0
      Temps:          0       4       0       0       0       0       0       0       0       0       0       0       0       0       0       0       0
      Totals:         0      12       0       0       0       0       0       0       0       0       0       0       0       0       0       0       0
Total ram usage:       12 bytes
 Hardware stack levels used:    1
 Hardware stack levels required when called:   15
 This function calls:
		_LORAWAN_TxDone
		_RADIO_RegisterWrite
		_RADIO_WriteMode
		_SwTimerReadValue
		_SwTimerStop
		___lmul
 This function is called by:
		_RADIO_DIO0
 This function uses a non-reentrant model


 *************** function _RADIO_RxDone *****************
 Defined at:
		line 961 in file "mcc_generated_files/LoRaWAN/radio_driver_SX1276.c"
 Parameters:    Size  Location     Type
		None
 Auto vars:     Size  Location     Type
  i               1  148[BANK0 ] unsigned char 
  irqFlags        1  147[BANK0 ] unsigned char 
 Return value:  Size  Location     Type
                  1    wreg      void 
 Registers used:
		wreg, fsr0l, fsr0h, fsr1l, fsr1h, fsr2l, fsr2h, status,2, status,0, pclath, btemp+8, btemp+9, btemp+10, btemp+11, tosl, tblptrl, tblptrh, tblptru, prodl, prodh, cstack
 Tracked objects:
		On entry : 
		On exit  : 
		Unchanged: 
 Data sizes:     COMRAM   BANK0   BANK1   BANK2   BANK3   BANK4   BANK5   BANK6   BANK7   BANK8   BANK9  BANK10  BANK11  BANK12  BANK13  BANK14  BANK15
      Params:         0       0       0       0       0       0       0       0       0       0       0       0       0       0       0       0       0
      Locals:         0       2       0       0       0       0       0       0       0       0       0       0       0       0       0       0       0
      Temps:          0       0       0       0       0       0       0       0       0       0       0       0       0       0       0       0       0
      Totals:         0       2       0       0       0       0       0       0       0       0       0       0       0       0       0       0       0
Total ram usage:        2 bytes
 Hardware stack levels used:    1
 Hardware stack levels required when called:   16
 This function calls:
		_HALSPICSAssert
		_HALSPICSDeassert
		_HALSPISend
		_LORAWAN_RxDone
		_RADIO_RegisterRead
		_RADIO_RegisterWrite
		_RADIO_WriteMode
		_SwTimerStop
		___abdiv
 This function is called by:
		_RADIO_DIO0
 This function uses a non-reentrant model


 *************** function ___abdiv *****************
 Defined at:
		line 4 in file "C:\Program Files (x86)\Microchip\xc8\v1.45\sources\common\abdiv.c"
 Parameters:    Size  Location     Type
  dividend        1    wreg     char 
  divisor         1    0[BANK0 ] char 
 Auto vars:     Size  Location     Type
  dividend        1    6[BANK0 ] char 
  quotient        1    5[BANK0 ] char 
  sign            1    4[BANK0 ] unsigned char 
  counter         1    3[BANK0 ] unsigned char 
 Return value:  Size  Location     Type
                  1    wreg      char 
 Registers used:
		wreg, status,2, status,0
 Tracked objects:
		On entry : 
		On exit  : 
		Unchanged: 
 Data sizes:     COMRAM   BANK0   BANK1   BANK2   BANK3   BANK4   BANK5   BANK6   BANK7   BANK8   BANK9  BANK10  BANK11  BANK12  BANK13  BANK14  BANK15
      Params:         0       1       0       0       0       0       0       0       0       0       0       0       0       0       0       0       0
      Locals:         0       4       0       0       0       0       0       0       0       0       0       0       0       0       0       0       0
      Temps:          0       2       0       0       0       0       0       0       0       0       0       0       0       0       0       0       0
      Totals:         0       7       0       0       0       0       0       0       0       0       0       0       0       0       0       0       0
Total ram usage:        7 bytes
 Hardware stack levels used:    1
 Hardware stack levels required when called:    7
 This function calls:
		Nothing
 This function is called by:
		_RADIO_RxDone
 This function uses a non-reentrant model


 *************** function _RADIO_FSKPayloadReady *****************
 Defined at:
		line 1010 in file "mcc_generated_files/LoRaWAN/radio_driver_SX1276.c"
 Parameters:    Size  Location     Type
		None
 Auto vars:     Size  Location     Type
  i               1  148[BANK0 ] unsigned char 
  irqFlags        1  147[BANK0 ] unsigned char 
 Return value:  Size  Location     Type
                  1    wreg      void 
 Registers used:
		wreg, fsr0l, fsr0h, fsr1l, fsr1h, fsr2l, fsr2h, status,2, status,0, pclath, btemp+1, btemp+2, btemp+8, btemp+9, btemp+10, btemp+11, tosl, tblptrl, tblptrh, tblptru, prodl, prodh, cstack
 Tracked objects:
		On entry : 
		On exit  : 
		Unchanged: 
 Data sizes:     COMRAM   BANK0   BANK1   BANK2   BANK3   BANK4   BANK5   BANK6   BANK7   BANK8   BANK9  BANK10  BANK11  BANK12  BANK13  BANK14  BANK15
      Params:         0       0       0       0       0       0       0       0       0       0       0       0       0       0       0       0       0
      Locals:         0       2       0       0       0       0       0       0       0       0       0       0       0       0       0       0       0
      Temps:          0       0       0       0       0       0       0       0       0       0       0       0       0       0       0       0       0
      Totals:         0       2       0       0       0       0       0       0       0       0       0       0       0       0       0       0       0
Total ram usage:        2 bytes
 Hardware stack levels used:    1
 Hardware stack levels required when called:   16
 This function calls:
		_HALSPICSAssert
		_HALSPICSDeassert
		_HALSPISend
		_LORAWAN_RxDone
		_LORAWAN_RxTimeout
		_RADIO_RegisterRead
		_RADIO_WriteMode
		_SwTimerStop
 This function is called by:
		_RADIO_DIO0
 This function uses a non-reentrant model


 *************** function _LORAWAN_RxTimeout *****************
 Defined at:
		line 464 in file "mcc_generated_files/LoRaWAN/lorawan_eu.c"
 Parameters:    Size  Location     Type
		None
 Auto vars:     Size  Location     Type
  minim           4  102[BANK0 ] unsigned long 
  i               1  106[BANK0 ] unsigned char 
 Return value:  Size  Location     Type
                  1    wreg      void 
 Registers used:
		wreg, fsr0l, fsr0h, fsr2l, fsr2h, status,2, status,0, pclath, btemp+1, btemp+2, btemp+11, tosl, tblptrl, tblptrh, tblptru, prodl, prodh, cstack
 Tracked objects:
		On entry : 
		On exit  : 
		Unchanged: 
 Data sizes:     COMRAM   BANK0   BANK1   BANK2   BANK3   BANK4   BANK5   BANK6   BANK7   BANK8   BANK9  BANK10  BANK11  BANK12  BANK13  BANK14  BANK15
      Params:         0       0       0       0       0       0       0       0       0       0       0       0       0       0       0       0       0
      Locals:         0       5       0       0       0       0       0       0       0       0       0       0       0       0       0       0       0
      Temps:          0       4       0       0       0       0       0       0       0       0       0       0       0       0       0       0       0
      Totals:         0       9       0       0       0       0       0       0       0       0       0       0       0       0       0       0       0
Total ram usage:        9 bytes
 Hardware stack levels used:    1
 Hardware stack levels required when called:   15
 This function calls:
		_LORAWAN_ReceiveWindow2Callback
		_RADIO_Transmit
		_ResetParametersForConfirmedTransmission
		_ResetParametersForUnconfirmedTransmission
		_RxData
		_SelectChannelForTransmission
		_SetJoinFailState
		_SwTimerSetTimeout
		_SwTimerStart
		___lldiv
 This function is called by:
		_RADIO_FSKPayloadReady
		_RADIO_RxTimeout
		_RADIO_RxFSKTimeout
		_RADIO_WatchdogTimeout
 This function uses a non-reentrant model


 *************** function _LORAWAN_RxDone *****************
 Defined at:
		line 1121 in file "mcc_generated_files/LoRaWAN/lorawan.c"
 Parameters:    Size  Location     Type
  buffer          2  102[BANK1 ] PTR unsigned char 
		 -> LORAWAN_RxDone@hdr(2), radioBuffer(271), 
  bufferLength    1  104[BANK1 ] unsigned char 
 Auto vars:     Size  Location     Type
  hdr             2  145[BANK0 ] PTR struct .
		 -> LORAWAN_RxDone@hdr(2), radioBuffer(271), 
  joinAccept      2  142[BANK0 ] PTR struct .
		 -> LORAWAN_RxDone@hdr(2), radioBuffer(271), 
  computedMic     4  138[BANK0 ] unsigned long 
  extractedMic    4  130[BANK0 ] unsigned long 
  packet          2  136[BANK0 ] PTR unsigned char 
		 -> LORAWAN_RxDone@hdr(2), radioBuffer(271), NULL(0), 
  frmPayloadLe    1  144[BANK0 ] unsigned char 
  temp            1  135[BANK0 ] unsigned char 
  bufferIndex     1  134[BANK0 ] unsigned char 
  mhdr            1  129[BANK0 ] struct .
  channelIndex    1  128[BANK0 ] unsigned char 
  fPort           1  127[BANK0 ] unsigned char 
 Return value:  Size  Location     Type
                  1    wreg      enum E7426
 Registers used:
		wreg, fsr0l, fsr0h, fsr1l, fsr1h, fsr2l, fsr2h, status,2, status,0, pclath, btemp+8, btemp+9, btemp+10, btemp+11, tosl, tblptrl, tblptrh, tblptru, prodl, prodh, cstack
 Tracked objects:
		On entry : 
		On exit  : 
		Unchanged: 
 Data sizes:     COMRAM   BANK0   BANK1   BANK2   BANK3   BANK4   BANK5   BANK6   BANK7   BANK8   BANK9  BANK10  BANK11  BANK12  BANK13  BANK14  BANK15
      Params:         0       0       3       0       0       0       0       0       0       0       0       0       0       0       0       0       0
      Locals:         0      20       0       0       0       0       0       0       0       0       0       0       0       0       0       0       0
      Temps:          0       5       0       0       0       0       0       0       0       0       0       0       0       0       0       0       0
      Totals:         0      25       3       0       0       0       0       0       0       0       0       0       0       0       0       0       0
Total ram usage:       28 bytes
 Hardware stack levels used:    1
 Hardware stack levels required when called:   15
 This function calls:
		_AESCmac
		_AESEncodeLoRa
		_AssembleEncryptionBlock
		_CheckFlags
		_CheckMcastFlags
		_ComputeMic
		_ComputeSessionKeys
		_EncryptFRMPayload
		_ExtractMic
		_LORAWAN_EnterContinuousReceive
		_LORAWAN_Send
		_MacExecuteCommands
		_RADIO_GetStatus
		_RADIO_ReleaseData
		_RxData
		_SearchAvailableChannel
		_SetJoinFailState
		_SetReceptionNotOkState
		_StartReTxTimer
		_SwTimerStop
		_UpdateCfList
		_UpdateDLSettings
		_UpdateJoinSuccessState
		_UpdateReceiveDelays
		_UpdateRetransmissionAckTimeoutState
		_memcpy
 This function is called by:
		_RADIO_RxDone
		_RADIO_FSKPayloadReady
 This function uses a non-reentrant model


 *************** function _UpdateRetransmissionAckTimeoutState *****************
 Defined at:
		line 1034 in file "mcc_generated_files/LoRaWAN/lorawan.c"
 Parameters:    Size  Location     Type
		None
 Auto vars:     Size  Location     Type
		None
 Return value:  Size  Location     Type
                  1    wreg      void 
 Registers used:
		wreg, fsr2l, fsr2h, status,2, status,0, prodl, prodh, cstack
 Tracked objects:
		On entry : 
		On exit  : 
		Unchanged: 
 Data sizes:     COMRAM   BANK0   BANK1   BANK2   BANK3   BANK4   BANK5   BANK6   BANK7   BANK8   BANK9  BANK10  BANK11  BANK12  BANK13  BANK14  BANK15
      Params:         0       0       0       0       0       0       0       0       0       0       0       0       0       0       0       0       0
      Locals:         0       0       0       0       0       0       0       0       0       0       0       0       0       0       0       0       0
      Temps:          0       4       0       0       0       0       0       0       0       0       0       0       0       0       0       0       0
      Totals:         0       4       0       0       0       0       0       0       0       0       0       0       0       0       0       0       0
Total ram usage:        4 bytes
 Hardware stack levels used:    1
 Hardware stack levels required when called:   11
 This function calls:
		_SwTimerSetTimeout
		_SwTimerStart
		___lldiv
 This function is called by:
		_AckRetransmissionCallback
		_LORAWAN_RxDone
 This function uses a non-reentrant model


 *************** function _UpdateDLSettings *****************
 Defined at:
		line 888 in file "mcc_generated_files/LoRaWAN/lorawan_eu.c"
 Parameters:    Size  Location     Type
  dlRx2Dr         1    wreg     unsigned char 
  dlRx1DrOffse    1    0[BANK0 ] unsigned char 
 Auto vars:     Size  Location     Type
  dlRx2Dr         1    1[BANK0 ] unsigned char 
 Return value:  Size  Location     Type
                  1    wreg      void 
 Registers used:
		wreg, status,2, status,0
 Tracked objects:
		On entry : 
		On exit  : 
		Unchanged: 
 Data sizes:     COMRAM   BANK0   BANK1   BANK2   BANK3   BANK4   BANK5   BANK6   BANK7   BANK8   BANK9  BANK10  BANK11  BANK12  BANK13  BANK14  BANK15
      Params:         0       1       0       0       0       0       0       0       0       0       0       0       0       0       0       0       0
      Locals:         0       1       0       0       0       0       0       0       0       0       0       0       0       0       0       0       0
      Temps:          0       0       0       0       0       0       0       0       0       0       0       0       0       0       0       0       0
      Totals:         0       2       0       0       0       0       0       0       0       0       0       0       0       0       0       0       0
Total ram usage:        2 bytes
 Hardware stack levels used:    1
 Hardware stack levels required when called:    7
 This function calls:
		Nothing
 This function is called by:
		_LORAWAN_RxDone
 This function uses a non-reentrant model


 *************** function _UpdateCfList *****************
 Defined at:
		line 824 in file "mcc_generated_files/LoRaWAN/lorawan_eu.c"
 Parameters:    Size  Location     Type
  bufferLength    1    wreg     unsigned char 
  joinAccept      2   70[BANK0 ] PTR struct .
		 -> LORAWAN_RxDone@hdr(2), radioBuffer(271), 
 Auto vars:     Size  Location     Type
  bufferLength    1   72[BANK0 ] unsigned char 
  frequency       4   73[BANK0 ] unsigned long 
  i               1   78[BANK0 ] unsigned char 
  channelIndex    1   77[BANK0 ] unsigned char 
 Return value:  Size  Location     Type
                  1    wreg      void 
 Registers used:
		wreg, fsr0l, fsr0h, fsr2l, fsr2h, status,2, status,0, tblptrl, tblptrh, tblptru, prodl, prodh, cstack
 Tracked objects:
		On entry : 
		On exit  : 
		Unchanged: 
 Data sizes:     COMRAM   BANK0   BANK1   BANK2   BANK3   BANK4   BANK5   BANK6   BANK7   BANK8   BANK9  BANK10  BANK11  BANK12  BANK13  BANK14  BANK15
      Params:         0       2       0       0       0       0       0       0       0       0       0       0       0       0       0       0       0
      Locals:         0       7       0       0       0       0       0       0       0       0       0       0       0       0       0       0       0
      Temps:          0       0       0       0       0       0       0       0       0       0       0       0       0       0       0       0       0
      Totals:         0       9       0       0       0       0       0       0       0       0       0       0       0       0       0       0       0
Total ram usage:        9 bytes
 Hardware stack levels used:    1
 Hardware stack levels required when called:    9
 This function calls:
		_LORAWAN_SetChannelIdStatus
		_ValidateFrequency
		___lmul
		___wmul
		_memcpy
 This function is called by:
		_LORAWAN_RxDone
 This function uses a non-reentrant model


 *************** function _StartReTxTimer *****************
 Defined at:
		line 902 in file "mcc_generated_files/LoRaWAN/lorawan_eu.c"
 Parameters:    Size  Location     Type
		None
 Auto vars:     Size  Location     Type
  minim           4   62[BANK0 ] unsigned long 
  i               1   66[BANK0 ] unsigned char 
 Return value:  Size  Location     Type
                  1    wreg      void 
 Registers used:
		wreg, fsr2l, fsr2h, status,2, status,0, prodl, prodh, cstack
 Tracked objects:
		On entry : 
		On exit  : 
		Unchanged: 
 Data sizes:     COMRAM   BANK0   BANK1   BANK2   BANK3   BANK4   BANK5   BANK6   BANK7   BANK8   BANK9  BANK10  BANK11  BANK12  BANK13  BANK14  BANK15
      Params:         0       0       0       0       0       0       0       0       0       0       0       0       0       0       0       0       0
      Locals:         0       5       0       0       0       0       0       0       0       0       0       0       0       0       0       0       0
      Temps:          0       4       0       0       0       0       0       0       0       0       0       0       0       0       0       0       0
      Totals:         0       9       0       0       0       0       0       0       0       0       0       0       0       0       0       0       0
Total ram usage:        9 bytes
 Hardware stack levels used:    1
 Hardware stack levels required when called:   11
 This function calls:
		_SwTimerSetTimeout
		_SwTimerStart
		___lldiv
 This function is called by:
		_LORAWAN_RxDone
 This function uses a non-reentrant model


 *************** function _SetReceptionNotOkState *****************
 Defined at:
		line 1997 in file "mcc_generated_files/LoRaWAN/lorawan.c"
 Parameters:    Size  Location     Type
		None
 Auto vars:     Size  Location     Type
		None
 Return value:  Size  Location     Type
                  1    wreg      void 
 Registers used:
		wreg, fsr0l, fsr0h, fsr2l, fsr2h, status,2, status,0, pclath, tosl, tblptrl, tblptrh, tblptru, prodl, prodh, cstack
 Tracked objects:
		On entry : 
		On exit  : 
		Unchanged: 
 Data sizes:     COMRAM   BANK0   BANK1   BANK2   BANK3   BANK4   BANK5   BANK6   BANK7   BANK8   BANK9  BANK10  BANK11  BANK12  BANK13  BANK14  BANK15
      Params:         0       0       0       0       0       0       0       0       0       0       0       0       0       0       0       0       0
      Locals:         0       0       0       0       0       0       0       0       0       0       0       0       0       0       0       0       0
      Temps:          0       0       0       0       0       0       0       0       0       0       0       0       0       0       0       0       0
      Totals:         0       0       0       0       0       0       0       0       0       0       0       0       0       0       0       0       0
Total ram usage:        0 bytes
 Hardware stack levels used:    1
 Hardware stack levels required when called:   14
 This function calls:
		_LORAWAN_EnterContinuousReceive
		_RxData
 This function is called by:
		_LORAWAN_RxDone
 This function uses a non-reentrant model


 *************** function _SetJoinFailState *****************
 Defined at:
		line 1104 in file "mcc_generated_files/LoRaWAN/lorawan.c"
 Parameters:    Size  Location     Type
		None
 Auto vars:     Size  Location     Type
		None
 Return value:  Size  Location     Type
                  1    wreg      void 
 Registers used:
		wreg, status,2, status,0, pclath, tosl, cstack
 Tracked objects:
		On entry : 
		On exit  : 
		Unchanged: 
 Data sizes:     COMRAM   BANK0   BANK1   BANK2   BANK3   BANK4   BANK5   BANK6   BANK7   BANK8   BANK9  BANK10  BANK11  BANK12  BANK13  BANK14  BANK15
      Params:         0       0       0       0       0       0       0       0       0       0       0       0       0       0       0       0       0
      Locals:         0       0       0       0       0       0       0       0       0       0       0       0       0       0       0       0       0
      Temps:          0       0       0       0       0       0       0       0       0       0       0       0       0       0       0       0       0
      Totals:         0       0       0       0       0       0       0       0       0       0       0       0       0       0       0       0       0
Total ram usage:        0 bytes
 Hardware stack levels used:    1
 Hardware stack levels required when called:    8
 This function calls:
		_RxJoinResponse
 This function is called by:
		_LORAWAN_RxTimeout
		_LORAWAN_RxDone
 This function uses a non-reentrant model


 *************** function _RxJoinResponse *****************
 Defined at:
		line 71 in file "main.c"
 Parameters:    Size  Location     Type
  status          1    wreg     unsigned char 
 Auto vars:     Size  Location     Type
  status          1    0[COMRAM] unsigned char 
 Return value:  Size  Location     Type
                  1    wreg      void 
 Registers used:
		wreg
 Tracked objects:
		On entry : 
		On exit  : 
		Unchanged: 
 Data sizes:     COMRAM   BANK0   BANK1   BANK2   BANK3   BANK4   BANK5   BANK6   BANK7   BANK8   BANK9  BANK10  BANK11  BANK12  BANK13  BANK14  BANK15
      Params:         0       0       0       0       0       0       0       0       0       0       0       0       0       0       0       0       0
      Locals:         0       0       0       0       0       0       0       0       0       0       0       0       0       0       0       0       0
      Temps:          0       0       0       0       0       0       0       0       0       0       0       0       0       0       0       0       0
      Totals:         0       0       0       0       0       0       0       0       0       0       0       0       0       0       0       0       0
Total ram usage:        0 bytes
 Hardware stack levels used:    1
 Hardware stack levels required when called:    7
 This function calls:
		Nothing
 This function is called by:
		_main
		_SetJoinFailState
		_UpdateJoinSuccessState
 This function uses a non-reentrant model


 *************** function _MacExecuteCommands *****************
 Defined at:
		line 1575 in file "mcc_generated_files/LoRaWAN/lorawan.c"
 Parameters:    Size  Location     Type
  buffer          2   80[BANK0 ] PTR unsigned char 
		 -> LORAWAN_RxDone@hdr(2), radioBuffer(271), 
  fOptsLen        1   82[BANK0 ] unsigned char 
 Auto vars:     Size  Location     Type
  ptr             2   86[BANK0 ] PTR unsigned char 
		 -> LORAWAN_RxDone@hdr(2), radioBuffer(271), 
  done            1   85[BANK0 ] unsigned char 
 Return value:  Size  Location     Type
                  2   80[BANK0 ] PTR unsigned char 
 Registers used:
		wreg, fsr0l, fsr0h, fsr2l, fsr2h, status,2, status,0, prodl, prodh, cstack
 Tracked objects:
		On entry : 
		On exit  : 
		Unchanged: 
 Data sizes:     COMRAM   BANK0   BANK1   BANK2   BANK3   BANK4   BANK5   BANK6   BANK7   BANK8   BANK9  BANK10  BANK11  BANK12  BANK13  BANK14  BANK15
      Params:         0       3       0       0       0       0       0       0       0       0       0       0       0       0       0       0       0
      Locals:         0       3       0       0       0       0       0       0       0       0       0       0       0       0       0       0       0
      Temps:          0       2       0       0       0       0       0       0       0       0       0       0       0       0       0       0       0
      Totals:         0       8       0       0       0       0       0       0       0       0       0       0       0       0       0       0       0
Total ram usage:        8 bytes
 Hardware stack levels used:    1
 Hardware stack levels required when called:   11
 This function calls:
		_ExecuteDevStatus
		_ExecuteDutyCycle
		_ExecuteLinkAdr
		_ExecuteLinkCheck
		_ExecuteNewChannel
		_ExecuteRxParamSetupReq
		_ExecuteRxTimingSetup
 This function is called by:
		_LORAWAN_RxDone
 This function uses a non-reentrant model


 *************** function _ExecuteRxTimingSetup *****************
 Defined at:
		line 1659 in file "mcc_generated_files/LoRaWAN/lorawan.c"
 Parameters:    Size  Location     Type
  ptr             2    7[BANK0 ] PTR unsigned char 
		 -> LORAWAN_RxDone@hdr(2), radioBuffer(271), 
 Auto vars:     Size  Location     Type
  delay           1    9[BANK0 ] unsigned char 
 Return value:  Size  Location     Type
                  2    7[BANK0 ] PTR unsigned char 
 Registers used:
		wreg, fsr2l, fsr2h, status,2, status,0, prodl, prodh, cstack
 Tracked objects:
		On entry : 
		On exit  : 
		Unchanged: 
 Data sizes:     COMRAM   BANK0   BANK1   BANK2   BANK3   BANK4   BANK5   BANK6   BANK7   BANK8   BANK9  BANK10  BANK11  BANK12  BANK13  BANK14  BANK15
      Params:         0       2       0       0       0       0       0       0       0       0       0       0       0       0       0       0       0
      Locals:         0       1       0       0       0       0       0       0       0       0       0       0       0       0       0       0       0
      Temps:          0       0       0       0       0       0       0       0       0       0       0       0       0       0       0       0       0
      Totals:         0       3       0       0       0       0       0       0       0       0       0       0       0       0       0       0       0
Total ram usage:        3 bytes
 Hardware stack levels used:    1
 Hardware stack levels required when called:    9
 This function calls:
		_UpdateReceiveDelays
 This function is called by:
		_MacExecuteCommands
 This function uses a non-reentrant model


 *************** function _UpdateReceiveDelays *****************
 Defined at:
		line 2026 in file "mcc_generated_files/LoRaWAN/lorawan.c"
 Parameters:    Size  Location     Type
  delay           1    wreg     unsigned char 
 Auto vars:     Size  Location     Type
  delay           1    6[BANK0 ] unsigned char 
 Return value:  Size  Location     Type
                  1    wreg      void 
 Registers used:
		wreg, status,2, status,0, prodl, prodh, cstack
 Tracked objects:
		On entry : 
		On exit  : 
		Unchanged: 
 Data sizes:     COMRAM   BANK0   BANK1   BANK2   BANK3   BANK4   BANK5   BANK6   BANK7   BANK8   BANK9  BANK10  BANK11  BANK12  BANK13  BANK14  BANK15
      Params:         0       0       0       0       0       0       0       0       0       0       0       0       0       0       0       0       0
      Locals:         0       1       0       0       0       0       0       0       0       0       0       0       0       0       0       0       0
      Temps:          0       0       0       0       0       0       0       0       0       0       0       0       0       0       0       0       0
      Totals:         0       1       0       0       0       0       0       0       0       0       0       0       0       0       0       0       0
Total ram usage:        1 bytes
 Hardware stack levels used:    1
 Hardware stack levels required when called:    8
 This function calls:
		___wmul
 This function is called by:
		_LORAWAN_RxDone
		_ExecuteRxTimingSetup
 This function uses a non-reentrant model


 *************** function ___wmul *****************
 Defined at:
		line 15 in file "C:\Program Files (x86)\Microchip\xc8\v1.45\sources\common\Umul16.c"
 Parameters:    Size  Location     Type
  multiplier      2    0[BANK0 ] unsigned int 
  multiplicand    2    2[BANK0 ] unsigned int 
 Auto vars:     Size  Location     Type
  product         2    4[BANK0 ] unsigned int 
 Return value:  Size  Location     Type
                  2    0[BANK0 ] unsigned int 
 Registers used:
		wreg, status,2, status,0, prodl, prodh
 Tracked objects:
		On entry : 
		On exit  : 
		Unchanged: 
 Data sizes:     COMRAM   BANK0   BANK1   BANK2   BANK3   BANK4   BANK5   BANK6   BANK7   BANK8   BANK9  BANK10  BANK11  BANK12  BANK13  BANK14  BANK15
      Params:         0       4       0       0       0       0       0       0       0       0       0       0       0       0       0       0       0
      Locals:         0       2       0       0       0       0       0       0       0       0       0       0       0       0       0       0       0
      Temps:          0       0       0       0       0       0       0       0       0       0       0       0       0       0       0       0       0
      Totals:         0       6       0       0       0       0       0       0       0       0       0       0       0       0       0       0       0
Total ram usage:        6 bytes
 Hardware stack levels used:    1
 Hardware stack levels required when called:    7
 This function calls:
		Nothing
 This function is called by:
		_UpdateCfList
		_UpdateReceiveDelays
 This function uses a non-reentrant model


 *************** function _ExecuteRxParamSetupReq *****************
 Defined at:
		line 740 in file "mcc_generated_files/LoRaWAN/lorawan_eu.c"
 Parameters:    Size  Location     Type
  ptr             2   70[BANK0 ] PTR unsigned char 
		 -> LORAWAN_RxDone@hdr(2), radioBuffer(271), 
 Auto vars:     Size  Location     Type
  frequency       4   74[BANK0 ] unsigned long 
  dlSettings      1   78[BANK0 ] struct .
 Return value:  Size  Location     Type
                  2   70[BANK0 ] PTR unsigned char 
 Registers used:
		wreg, fsr2l, fsr2h, status,2, status,0, prodl, prodh, cstack
 Tracked objects:
		On entry : 
		On exit  : 
		Unchanged: 
 Data sizes:     COMRAM   BANK0   BANK1   BANK2   BANK3   BANK4   BANK5   BANK6   BANK7   BANK8   BANK9  BANK10  BANK11  BANK12  BANK13  BANK14  BANK15
      Params:         0       2       0       0       0       0       0       0       0       0       0       0       0       0       0       0       0
      Locals:         0       5       0       0       0       0       0       0       0       0       0       0       0       0       0       0       0
      Temps:          0       2       0       0       0       0       0       0       0       0       0       0       0       0       0       0       0
      Totals:         0       9       0       0       0       0       0       0       0       0       0       0       0       0       0       0       0
Total ram usage:        9 bytes
 Hardware stack levels used:    1
 Hardware stack levels required when called:    8
 This function calls:
		_UpdateReceiveWindow2Parameters
		_ValidateDataRate
		_ValidateFrequency
		_ValidateRxOffset
		___lmul
 This function is called by:
		_MacExecuteCommands
 This function uses a non-reentrant model


 *************** function _ValidateRxOffset *****************
 Defined at:
		line 1076 in file "mcc_generated_files/LoRaWAN/lorawan_eu.c"
 Parameters:    Size  Location     Type
  rxOffset        1    wreg     unsigned char 
 Auto vars:     Size  Location     Type
  rxOffset        1    0[BANK0 ] unsigned char 
  result          1    1[BANK0 ] enum E7249
 Return value:  Size  Location     Type
                  1    wreg      enum E7249
 Registers used:
		wreg, status,2, status,0
 Tracked objects:
		On entry : 
		On exit  : 
		Unchanged: 
 Data sizes:     COMRAM   BANK0   BANK1   BANK2   BANK3   BANK4   BANK5   BANK6   BANK7   BANK8   BANK9  BANK10  BANK11  BANK12  BANK13  BANK14  BANK15
      Params:         0       0       0       0       0       0       0       0       0       0       0       0       0       0       0       0       0
      Locals:         0       2       0       0       0       0       0       0       0       0       0       0       0       0       0       0       0
      Temps:          0       0       0       0       0       0       0       0       0       0       0       0       0       0       0       0       0
      Totals:         0       2       0       0       0       0       0       0       0       0       0       0       0       0       0       0       0
Total ram usage:        2 bytes
 Hardware stack levels used:    1
 Hardware stack levels required when called:    7
 This function calls:
		Nothing
 This function is called by:
		_ExecuteRxParamSetupReq
 This function uses a non-reentrant model


 *************** function _UpdateReceiveWindow2Parameters *****************
 Defined at:
		line 1084 in file "mcc_generated_files/LoRaWAN/lorawan.c"
 Parameters:    Size  Location     Type
  frequency       4    0[BANK0 ] unsigned long 
  dataRate        1    4[BANK0 ] unsigned char 
 Auto vars:     Size  Location     Type
		None
 Return value:  Size  Location     Type
                  1    wreg      void 
 Registers used:
		None
 Tracked objects:
		On entry : 
		On exit  : 
		Unchanged: 
 Data sizes:     COMRAM   BANK0   BANK1   BANK2   BANK3   BANK4   BANK5   BANK6   BANK7   BANK8   BANK9  BANK10  BANK11  BANK12  BANK13  BANK14  BANK15
      Params:         0       5       0       0       0       0       0       0       0       0       0       0       0       0       0       0       0
      Locals:         0       0       0       0       0       0       0       0       0       0       0       0       0       0       0       0       0
      Temps:          0       0       0       0       0       0       0       0       0       0       0       0       0       0       0       0       0
      Totals:         0       5       0       0       0       0       0       0       0       0       0       0       0       0       0       0       0
Total ram usage:        5 bytes
 Hardware stack levels used:    1
 Hardware stack levels required when called:    7
 This function calls:
		Nothing
 This function is called by:
		_ExecuteRxParamSetupReq
		_LORAWAN_SetReceiveWindow2Parameters
 This function uses a non-reentrant model


 *************** function _ExecuteNewChannel *****************
 Defined at:
		line 677 in file "mcc_generated_files/LoRaWAN/lorawan_eu.c"
 Parameters:    Size  Location     Type
  ptr             2   70[BANK0 ] PTR unsigned char 
		 -> LORAWAN_RxDone@hdr(2), radioBuffer(271), 
 Auto vars:     Size  Location     Type
  frequency       4   75[BANK0 ] unsigned long 
  channelIndex    1   79[BANK0 ] unsigned char 
  drRange         1   74[BANK0 ] struct .
 Return value:  Size  Location     Type
                  2   70[BANK0 ] PTR unsigned char 
 Registers used:
		wreg, fsr2l, fsr2h, status,2, status,0, prodl, prodh, cstack
 Tracked objects:
		On entry : 
		On exit  : 
		Unchanged: 
 Data sizes:     COMRAM   BANK0   BANK1   BANK2   BANK3   BANK4   BANK5   BANK6   BANK7   BANK8   BANK9  BANK10  BANK11  BANK12  BANK13  BANK14  BANK15
      Params:         0       2       0       0       0       0       0       0       0       0       0       0       0       0       0       0       0
      Locals:         0       6       0       0       0       0       0       0       0       0       0       0       0       0       0       0       0
      Temps:          0       2       0       0       0       0       0       0       0       0       0       0       0       0       0       0       0
      Totals:         0      10       0       0       0       0       0       0       0       0       0       0       0       0       0       0       0
Total ram usage:       10 bytes
 Hardware stack levels used:    1
 Hardware stack levels required when called:    9
 This function calls:
		_LORAWAN_SetChannelIdStatus
		_UpdateChannelIdStatus
		_UpdateDataRange
		_UpdateDutyCycle
		_UpdateFrequency
		_ValidateChannelId
		_ValidateDataRange
		_ValidateFrequency
		___lmul
 This function is called by:
		_MacExecuteCommands
 This function uses a non-reentrant model


 *************** function _ValidateFrequency *****************
 Defined at:
		line 1088 in file "mcc_generated_files/LoRaWAN/lorawan_eu.c"
 Parameters:    Size  Location     Type
  frequencyNew    4    0[BANK0 ] unsigned long 
 Auto vars:     Size  Location     Type
  result          1    4[BANK0 ] enum E7249
 Return value:  Size  Location     Type
                  1    wreg      enum E7249
 Registers used:
		wreg, status,2, status,0
 Tracked objects:
		On entry : 
		On exit  : 
		Unchanged: 
 Data sizes:     COMRAM   BANK0   BANK1   BANK2   BANK3   BANK4   BANK5   BANK6   BANK7   BANK8   BANK9  BANK10  BANK11  BANK12  BANK13  BANK14  BANK15
      Params:         0       4       0       0       0       0       0       0       0       0       0       0       0       0       0       0       0
      Locals:         0       1       0       0       0       0       0       0       0       0       0       0       0       0       0       0       0
      Temps:          0       0       0       0       0       0       0       0       0       0       0       0       0       0       0       0       0
      Totals:         0       5       0       0       0       0       0       0       0       0       0       0       0       0       0       0       0
Total ram usage:        5 bytes
 Hardware stack levels used:    1
 Hardware stack levels required when called:    7
 This function calls:
		Nothing
 This function is called by:
		_ExecuteNewChannel
		_ExecuteRxParamSetupReq
		_UpdateCfList
		_LORAWAN_SetReceiveWindow2Parameters
		_LORAWAN_SetFrequency
 This function uses a non-reentrant model


 *************** function _ValidateDataRange *****************
 Defined at:
		line 1110 in file "mcc_generated_files/LoRaWAN/lorawan_eu.c"
 Parameters:    Size  Location     Type
  dataRangeNew    1    wreg     unsigned char 
 Auto vars:     Size  Location     Type
  dataRangeNew    1    3[BANK0 ] unsigned char 
  dataRateMin     1    5[BANK0 ] unsigned char 
  dataRateMax     1    4[BANK0 ] unsigned char 
  result          1    2[BANK0 ] enum E7249
 Return value:  Size  Location     Type
                  1    wreg      enum E7249
 Registers used:
		wreg, status,2, status,0, cstack
 Tracked objects:
		On entry : 
		On exit  : 
		Unchanged: 
 Data sizes:     COMRAM   BANK0   BANK1   BANK2   BANK3   BANK4   BANK5   BANK6   BANK7   BANK8   BANK9  BANK10  BANK11  BANK12  BANK13  BANK14  BANK15
      Params:         0       0       0       0       0       0       0       0       0       0       0       0       0       0       0       0       0
      Locals:         0       4       0       0       0       0       0       0       0       0       0       0       0       0       0       0       0
      Temps:          0       0       0       0       0       0       0       0       0       0       0       0       0       0       0       0       0
      Totals:         0       4       0       0       0       0       0       0       0       0       0       0       0       0       0       0       0
Total ram usage:        4 bytes
 Hardware stack levels used:    1
 Hardware stack levels required when called:    8
 This function calls:
		_ValidateDataRate
 This function is called by:
		_ExecuteNewChannel
		_LORAWAN_SetDataRange
 This function uses a non-reentrant model


 *************** function _UpdateFrequency *****************
 Defined at:
		line 1154 in file "mcc_generated_files/LoRaWAN/lorawan_eu.c"
 Parameters:    Size  Location     Type
  channelId       1    wreg     unsigned char 
  frequencyNew    4    0[BANK0 ] unsigned long 
 Auto vars:     Size  Location     Type
  channelId       1    4[BANK0 ] unsigned char 
 Return value:  Size  Location     Type
                  1    wreg      void 
 Registers used:
		wreg, fsr2l, fsr2h, status,2, status,0, prodl, prodh
 Tracked objects:
		On entry : 
		On exit  : 
		Unchanged: 
 Data sizes:     COMRAM   BANK0   BANK1   BANK2   BANK3   BANK4   BANK5   BANK6   BANK7   BANK8   BANK9  BANK10  BANK11  BANK12  BANK13  BANK14  BANK15
      Params:         0       4       0       0       0       0       0       0       0       0       0       0       0       0       0       0       0
      Locals:         0       1       0       0       0       0       0       0       0       0       0       0       0       0       0       0       0
      Temps:          0       0       0       0       0       0       0       0       0       0       0       0       0       0       0       0       0
      Totals:         0       5       0       0       0       0       0       0       0       0       0       0       0       0       0       0       0
Total ram usage:        5 bytes
 Hardware stack levels used:    1
 Hardware stack levels required when called:    7
 This function calls:
		Nothing
 This function is called by:
		_ExecuteNewChannel
		_LORAWAN_SetFrequency
 This function uses a non-reentrant model


 *************** function _UpdateDutyCycle *****************
 Defined at:
		line 1160 in file "mcc_generated_files/LoRaWAN/lorawan_eu.c"
 Parameters:    Size  Location     Type
  channelId       1    wreg     unsigned char 
  dutyCycleNew    2    0[BANK0 ] unsigned int 
 Auto vars:     Size  Location     Type
  channelId       1    2[BANK0 ] unsigned char 
 Return value:  Size  Location     Type
                  1    wreg      void 
 Registers used:
		wreg, fsr2l, fsr2h, status,2, status,0, prodl, prodh
 Tracked objects:
		On entry : 
		On exit  : 
		Unchanged: 
 Data sizes:     COMRAM   BANK0   BANK1   BANK2   BANK3   BANK4   BANK5   BANK6   BANK7   BANK8   BANK9  BANK10  BANK11  BANK12  BANK13  BANK14  BANK15
      Params:         0       2       0       0       0       0       0       0       0       0       0       0       0       0       0       0       0
      Locals:         0       1       0       0       0       0       0       0       0       0       0       0       0       0       0       0       0
      Temps:          0       0       0       0       0       0       0       0       0       0       0       0       0       0       0       0       0
      Totals:         0       3       0       0       0       0       0       0       0       0       0       0       0       0       0       0       0
Total ram usage:        3 bytes
 Hardware stack levels used:    1
 Hardware stack levels required when called:    7
 This function calls:
		Nothing
 This function is called by:
		_ExecuteNewChannel
		_LORAWAN_SetDutyCycle
 This function uses a non-reentrant model


 *************** function _UpdateDataRange *****************
 Defined at:
		line 1009 in file "mcc_generated_files/LoRaWAN/lorawan_eu.c"
 Parameters:    Size  Location     Type
  channelId       1    wreg     unsigned char 
  dataRangeNew    1    0[BANK0 ] unsigned char 
 Auto vars:     Size  Location     Type
  channelId       1    2[BANK0 ] unsigned char 
  i               1    3[BANK0 ] unsigned char 
 Return value:  Size  Location     Type
                  1    wreg      void 
 Registers used:
		wreg, fsr2l, fsr2h, status,2, status,0, prodl, prodh
 Tracked objects:
		On entry : 
		On exit  : 
		Unchanged: 
 Data sizes:     COMRAM   BANK0   BANK1   BANK2   BANK3   BANK4   BANK5   BANK6   BANK7   BANK8   BANK9  BANK10  BANK11  BANK12  BANK13  BANK14  BANK15
      Params:         0       1       0       0       0       0       0       0       0       0       0       0       0       0       0       0       0
      Locals:         0       2       0       0       0       0       0       0       0       0       0       0       0       0       0       0       0
      Temps:          0       1       0       0       0       0       0       0       0       0       0       0       0       0       0       0       0
      Totals:         0       4       0       0       0       0       0       0       0       0       0       0       0       0       0       0       0
Total ram usage:        4 bytes
 Hardware stack levels used:    1
 Hardware stack levels required when called:    7
 This function calls:
		Nothing
 This function is called by:
		_ExecuteNewChannel
		_LORAWAN_SetDataRange
 This function uses a non-reentrant model


 *************** function _LORAWAN_SetChannelIdStatus *****************
 Defined at:
		line 282 in file "mcc_generated_files/LoRaWAN/lorawan_eu.c"
 Parameters:    Size  Location     Type
  channelId       1    wreg     unsigned char 
  statusNew       1    4[BANK0 ] unsigned char 
 Auto vars:     Size  Location     Type
  channelId       1    6[BANK0 ] unsigned char 
  result          1    5[BANK0 ] enum E7249
 Return value:  Size  Location     Type
                  1    wreg      enum E7249
 Registers used:
		wreg, fsr2l, fsr2h, status,2, status,0, prodl, prodh, cstack
 Tracked objects:
		On entry : 
		On exit  : 
		Unchanged: 
 Data sizes:     COMRAM   BANK0   BANK1   BANK2   BANK3   BANK4   BANK5   BANK6   BANK7   BANK8   BANK9  BANK10  BANK11  BANK12  BANK13  BANK14  BANK15
      Params:         0       1       0       0       0       0       0       0       0       0       0       0       0       0       0       0       0
      Locals:         0       2       0       0       0       0       0       0       0       0       0       0       0       0       0       0       0
      Temps:          0       0       0       0       0       0       0       0       0       0       0       0       0       0       0       0       0
      Totals:         0       3       0       0       0       0       0       0       0       0       0       0       0       0       0       0       0
Total ram usage:        3 bytes
 Hardware stack levels used:    1
 Hardware stack levels required when called:    8
 This function calls:
		_UpdateChannelIdStatus
		_ValidateChannelId
 This function is called by:
		_ExecuteNewChannel
		_UpdateCfList
 This function uses a non-reentrant model


 *************** function _ValidateChannelId *****************
 Defined at:
		line 1125 in file "mcc_generated_files/LoRaWAN/lorawan_eu.c"
 Parameters:    Size  Location     Type
  channelId       1    wreg     unsigned char 
  allowedForDe    1    0[BANK0 ] unsigned char 
 Auto vars:     Size  Location     Type
  channelId       1    2[BANK0 ] unsigned char 
  result          1    1[BANK0 ] enum E7249
 Return value:  Size  Location     Type
                  1    wreg      enum E7249
 Registers used:
		wreg, status,2, status,0
 Tracked objects:
		On entry : 
		On exit  : 
		Unchanged: 
 Data sizes:     COMRAM   BANK0   BANK1   BANK2   BANK3   BANK4   BANK5   BANK6   BANK7   BANK8   BANK9  BANK10  BANK11  BANK12  BANK13  BANK14  BANK15
      Params:         0       1       0       0       0       0       0       0       0       0       0       0       0       0       0       0       0
      Locals:         0       2       0       0       0       0       0       0       0       0       0       0       0       0       0       0       0
      Temps:          0       0       0       0       0       0       0       0       0       0       0       0       0       0       0       0       0
      Totals:         0       3       0       0       0       0       0       0       0       0       0       0       0       0       0       0       0
Total ram usage:        3 bytes
 Hardware stack levels used:    1
 Hardware stack levels required when called:    7
 This function calls:
		Nothing
 This function is called by:
		_LORAWAN_SetChannelIdStatus
		_ExecuteNewChannel
		_LORAWAN_SetDataRange
		_LORAWAN_GetDataRange
		_LORAWAN_GetChannelIdStatus
		_LORAWAN_SetFrequency
		_LORAWAN_SetDutyCycle
		_LORAWAN_GetDutyCycle
 This function uses a non-reentrant model


 *************** function _ExecuteLinkCheck *****************
 Defined at:
		line 1652 in file "mcc_generated_files/LoRaWAN/lorawan.c"
 Parameters:    Size  Location     Type
  ptr             2    0[BANK0 ] PTR unsigned char 
		 -> LORAWAN_RxDone@hdr(2), radioBuffer(271), 
 Auto vars:     Size  Location     Type
		None
 Return value:  Size  Location     Type
                  2    0[BANK0 ] PTR unsigned char 
 Registers used:
		wreg, fsr2l, fsr2h, status,2, status,0
 Tracked objects:
		On entry : 
		On exit  : 
		Unchanged: 
 Data sizes:     COMRAM   BANK0   BANK1   BANK2   BANK3   BANK4   BANK5   BANK6   BANK7   BANK8   BANK9  BANK10  BANK11  BANK12  BANK13  BANK14  BANK15
      Params:         0       2       0       0       0       0       0       0       0       0       0       0       0       0       0       0       0
      Locals:         0       0       0       0       0       0       0       0       0       0       0       0       0       0       0       0       0
      Temps:          0       0       0       0       0       0       0       0       0       0       0       0       0       0       0       0       0
      Totals:         0       2       0       0       0       0       0       0       0       0       0       0       0       0       0       0       0
Total ram usage:        2 bytes
 Hardware stack levels used:    1
 Hardware stack levels required when called:    7
 This function calls:
		Nothing
 This function is called by:
		_MacExecuteCommands
 This function uses a non-reentrant model


 *************** function _ExecuteLinkAdr *****************
 Defined at:
		line 613 in file "mcc_generated_files/LoRaWAN/lorawan_eu.c"
 Parameters:    Size  Location     Type
  ptr             2   15[BANK0 ] PTR unsigned char 
		 -> LORAWAN_RxDone@hdr(2), radioBuffer(271), 
 Auto vars:     Size  Location     Type
  redundancy      2   22[BANK0 ] PTR struct .
		 -> LORAWAN_RxDone@hdr(2), radioBuffer(271), 
  channelMask     2   19[BANK0 ] unsigned int 
  dataRate        1   24[BANK0 ] unsigned char 
  txPower         1   21[BANK0 ] unsigned char 
 Return value:  Size  Location     Type
                  2   15[BANK0 ] PTR unsigned char 
 Registers used:
		wreg, fsr2l, fsr2h, status,2, status,0, prodl, prodh, cstack
 Tracked objects:
		On entry : 
		On exit  : 
		Unchanged: 
 Data sizes:     COMRAM   BANK0   BANK1   BANK2   BANK3   BANK4   BANK5   BANK6   BANK7   BANK8   BANK9  BANK10  BANK11  BANK12  BANK13  BANK14  BANK15
      Params:         0       2       0       0       0       0       0       0       0       0       0       0       0       0       0       0       0
      Locals:         0       6       0       0       0       0       0       0       0       0       0       0       0       0       0       0       0
      Temps:          0       2       0       0       0       0       0       0       0       0       0       0       0       0       0       0       0
      Totals:         0      10       0       0       0       0       0       0       0       0       0       0       0       0       0       0       0
Total ram usage:       10 bytes
 Hardware stack levels used:    1
 Hardware stack levels required when called:   10
 This function calls:
		_EnableChannels
		_UpdateCurrentDataRate
		_UpdateTxPower
		_ValidateChannelMask
		_ValidateChannelMaskCntl
		_ValidateDataRate
		_ValidateTxPower
 This function is called by:
		_MacExecuteCommands
 This function uses a non-reentrant model


 *************** function _ValidateTxPower *****************
 Defined at:
		line 582 in file "mcc_generated_files/LoRaWAN/lorawan_eu.c"
 Parameters:    Size  Location     Type
  txPowerNew      1    wreg     unsigned char 
 Auto vars:     Size  Location     Type
  txPowerNew      1    1[BANK0 ] unsigned char 
  result          1    0[BANK0 ] enum E7249
 Return value:  Size  Location     Type
                  1    wreg      enum E7249
 Registers used:
		wreg, status,2, status,0
 Tracked objects:
		On entry : 
		On exit  : 
		Unchanged: 
 Data sizes:     COMRAM   BANK0   BANK1   BANK2   BANK3   BANK4   BANK5   BANK6   BANK7   BANK8   BANK9  BANK10  BANK11  BANK12  BANK13  BANK14  BANK15
      Params:         0       0       0       0       0       0       0       0       0       0       0       0       0       0       0       0       0
      Locals:         0       2       0       0       0       0       0       0       0       0       0       0       0       0       0       0       0
      Temps:          0       0       0       0       0       0       0       0       0       0       0       0       0       0       0       0       0
      Totals:         0       2       0       0       0       0       0       0       0       0       0       0       0       0       0       0       0
Total ram usage:        2 bytes
 Hardware stack levels used:    1
 Hardware stack levels required when called:    7
 This function calls:
		Nothing
 This function is called by:
		_ExecuteLinkAdr
		_LORAWAN_SetTxPower
 This function uses a non-reentrant model


 *************** function _ValidateDataRate *****************
 Defined at:
		line 570 in file "mcc_generated_files/LoRaWAN/lorawan_eu.c"
 Parameters:    Size  Location     Type
  dataRate        1    wreg     unsigned char 
 Auto vars:     Size  Location     Type
  dataRate        1    0[BANK0 ] unsigned char 
  result          1    1[BANK0 ] enum E7249
 Return value:  Size  Location     Type
                  1    wreg      enum E7249
 Registers used:
		wreg, status,2, status,0
 Tracked objects:
		On entry : 
		On exit  : 
		Unchanged: 
 Data sizes:     COMRAM   BANK0   BANK1   BANK2   BANK3   BANK4   BANK5   BANK6   BANK7   BANK8   BANK9  BANK10  BANK11  BANK12  BANK13  BANK14  BANK15
      Params:         0       0       0       0       0       0       0       0       0       0       0       0       0       0       0       0       0
      Locals:         0       2       0       0       0       0       0       0       0       0       0       0       0       0       0       0       0
      Temps:          0       0       0       0       0       0       0       0       0       0       0       0       0       0       0       0       0
      Totals:         0       2       0       0       0       0       0       0       0       0       0       0       0       0       0       0       0
Total ram usage:        2 bytes
 Hardware stack levels used:    1
 Hardware stack levels required when called:    7
 This function calls:
		Nothing
 This function is called by:
		_ExecuteLinkAdr
		_ExecuteRxParamSetupReq
		_ValidateDataRange
		_LORAWAN_SetReceiveWindow2Parameters
		_LORAWAN_SetCurrentDataRate
 This function uses a non-reentrant model


 *************** function _ValidateChannelMaskCntl *****************
 Defined at:
		line 1137 in file "mcc_generated_files/LoRaWAN/lorawan_eu.c"
 Parameters:    Size  Location     Type
  channelMaskC    1    wreg     unsigned char 
 Auto vars:     Size  Location     Type
  channelMaskC    1    1[BANK0 ] unsigned char 
  result          1    0[BANK0 ] enum E7249
 Return value:  Size  Location     Type
                  1    wreg      enum E7249
 Registers used:
		wreg, status,2, status,0
 Tracked objects:
		On entry : 
		On exit  : 
		Unchanged: 
 Data sizes:     COMRAM   BANK0   BANK1   BANK2   BANK3   BANK4   BANK5   BANK6   BANK7   BANK8   BANK9  BANK10  BANK11  BANK12  BANK13  BANK14  BANK15
      Params:         0       0       0       0       0       0       0       0       0       0       0       0       0       0       0       0       0
      Locals:         0       2       0       0       0       0       0       0       0       0       0       0       0       0       0       0       0
      Temps:          0       0       0       0       0       0       0       0       0       0       0       0       0       0       0       0       0
      Totals:         0       2       0       0       0       0       0       0       0       0       0       0       0       0       0       0       0
Total ram usage:        2 bytes
 Hardware stack levels used:    1
 Hardware stack levels required when called:    7
 This function calls:
		Nothing
 This function is called by:
		_ExecuteLinkAdr
 This function uses a non-reentrant model


 *************** function _ValidateChannelMask *****************
 Defined at:
		line 1166 in file "mcc_generated_files/LoRaWAN/lorawan_eu.c"
 Parameters:    Size  Location     Type
  channelMask     2    0[BANK0 ] unsigned int 
 Auto vars:     Size  Location     Type
  i               1    4[BANK0 ] unsigned char 
 Return value:  Size  Location     Type
                  1    wreg      enum E7249
 Registers used:
		wreg, fsr2l, fsr2h, status,2, status,0, prodl, prodh
 Tracked objects:
		On entry : 
		On exit  : 
		Unchanged: 
 Data sizes:     COMRAM   BANK0   BANK1   BANK2   BANK3   BANK4   BANK5   BANK6   BANK7   BANK8   BANK9  BANK10  BANK11  BANK12  BANK13  BANK14  BANK15
      Params:         0       2       0       0       0       0       0       0       0       0       0       0       0       0       0       0       0
      Locals:         0       1       0       0       0       0       0       0       0       0       0       0       0       0       0       0       0
      Temps:          0       2       0       0       0       0       0       0       0       0       0       0       0       0       0       0       0
      Totals:         0       5       0       0       0       0       0       0       0       0       0       0       0       0       0       0       0
Total ram usage:        5 bytes
 Hardware stack levels used:    1
 Hardware stack levels required when called:    7
 This function calls:
		Nothing
 This function is called by:
		_ExecuteLinkAdr
 This function uses a non-reentrant model


 *************** function _UpdateTxPower *****************
 Defined at:
		line 1029 in file "mcc_generated_files/LoRaWAN/lorawan.c"
 Parameters:    Size  Location     Type
  txPowerNew      1    wreg     unsigned char 
 Auto vars:     Size  Location     Type
  txPowerNew      1    0[BANK0 ] unsigned char 
 Return value:  Size  Location     Type
                  1    wreg      void 
 Registers used:
		wreg
 Tracked objects:
		On entry : 
		On exit  : 
		Unchanged: 
 Data sizes:     COMRAM   BANK0   BANK1   BANK2   BANK3   BANK4   BANK5   BANK6   BANK7   BANK8   BANK9  BANK10  BANK11  BANK12  BANK13  BANK14  BANK15
      Params:         0       0       0       0       0       0       0       0       0       0       0       0       0       0       0       0       0
      Locals:         0       1       0       0       0       0       0       0       0       0       0       0       0       0       0       0       0
      Temps:          0       0       0       0       0       0       0       0       0       0       0       0       0       0       0       0       0
      Totals:         0       1       0       0       0       0       0       0       0       0       0       0       0       0       0       0       0
Total ram usage:        1 bytes
 Hardware stack levels used:    1
 Hardware stack levels required when called:    7
 This function calls:
		Nothing
 This function is called by:
		_ExecuteLinkAdr
		_LORAWAN_SetTxPower
 This function uses a non-reentrant model


 *************** function _UpdateCurrentDataRate *****************
 Defined at:
		line 1024 in file "mcc_generated_files/LoRaWAN/lorawan.c"
 Parameters:    Size  Location     Type
  valueNew        1    wreg     unsigned char 
 Auto vars:     Size  Location     Type
  valueNew        1    0[BANK0 ] unsigned char 
 Return value:  Size  Location     Type
                  1    wreg      void 
 Registers used:
		wreg
 Tracked objects:
		On entry : 
		On exit  : 
		Unchanged: 
 Data sizes:     COMRAM   BANK0   BANK1   BANK2   BANK3   BANK4   BANK5   BANK6   BANK7   BANK8   BANK9  BANK10  BANK11  BANK12  BANK13  BANK14  BANK15
      Params:         0       0       0       0       0       0       0       0       0       0       0       0       0       0       0       0       0
      Locals:         0       1       0       0       0       0       0       0       0       0       0       0       0       0       0       0       0
      Temps:          0       0       0       0       0       0       0       0       0       0       0       0       0       0       0       0       0
      Totals:         0       1       0       0       0       0       0       0       0       0       0       0       0       0       0       0       0
Total ram usage:        1 bytes
 Hardware stack levels used:    1
 Hardware stack levels required when called:    7
 This function calls:
		Nothing
 This function is called by:
		_ExecuteLinkAdr
		_LORAWAN_SetCurrentDataRate
 This function uses a non-reentrant model


 *************** function _EnableChannels *****************
 Defined at:
		line 1149 in file "mcc_generated_files/LoRaWAN/lorawan_eu.c"
 Parameters:    Size  Location     Type
  channelMask     2   12[BANK0 ] unsigned int 
  channelMaskC    1   14[BANK0 ] unsigned char 
 Auto vars:     Size  Location     Type
		None
 Return value:  Size  Location     Type
                  1    wreg      void 
 Registers used:
		wreg, fsr2l, fsr2h, status,2, status,0, prodl, prodh, cstack
 Tracked objects:
		On entry : 
		On exit  : 
		Unchanged: 
 Data sizes:     COMRAM   BANK0   BANK1   BANK2   BANK3   BANK4   BANK5   BANK6   BANK7   BANK8   BANK9  BANK10  BANK11  BANK12  BANK13  BANK14  BANK15
      Params:         0       3       0       0       0       0       0       0       0       0       0       0       0       0       0       0       0
      Locals:         0       0       0       0       0       0       0       0       0       0       0       0       0       0       0       0       0
      Temps:          0       0       0       0       0       0       0       0       0       0       0       0       0       0       0       0       0
      Totals:         0       3       0       0       0       0       0       0       0       0       0       0       0       0       0       0       0
Total ram usage:        3 bytes
 Hardware stack levels used:    1
 Hardware stack levels required when called:    9
 This function calls:
		_EnableChannels1
 This function is called by:
		_ExecuteLinkAdr
 This function uses a non-reentrant model


 *************** function _EnableChannels1 *****************
 Defined at:
		line 1193 in file "mcc_generated_files/LoRaWAN/lorawan_eu.c"
 Parameters:    Size  Location     Type
  channelMask     2    4[BANK0 ] unsigned int 
  channelMaskC    1    6[BANK0 ] unsigned char 
  channelIndex    1    7[BANK0 ] unsigned char 
  channelIndex    1    8[BANK0 ] unsigned char 
 Auto vars:     Size  Location     Type
  i               1   11[BANK0 ] unsigned char 
 Return value:  Size  Location     Type
                  1    wreg      void 
 Registers used:
		wreg, fsr2l, fsr2h, status,2, status,0, prodl, prodh, cstack
 Tracked objects:
		On entry : 
		On exit  : 
		Unchanged: 
 Data sizes:     COMRAM   BANK0   BANK1   BANK2   BANK3   BANK4   BANK5   BANK6   BANK7   BANK8   BANK9  BANK10  BANK11  BANK12  BANK13  BANK14  BANK15
      Params:         0       5       0       0       0       0       0       0       0       0       0       0       0       0       0       0       0
      Locals:         0       1       0       0       0       0       0       0       0       0       0       0       0       0       0       0       0
      Temps:          0       2       0       0       0       0       0       0       0       0       0       0       0       0       0       0       0
      Totals:         0       8       0       0       0       0       0       0       0       0       0       0       0       0       0       0       0
Total ram usage:        8 bytes
 Hardware stack levels used:    1
 Hardware stack levels required when called:    8
 This function calls:
		_UpdateChannelIdStatus
 This function is called by:
		_EnableChannels
 This function uses a non-reentrant model


 *************** function _UpdateChannelIdStatus *****************
 Defined at:
		line 1042 in file "mcc_generated_files/LoRaWAN/lorawan_eu.c"
 Parameters:    Size  Location     Type
  channelId       1    wreg     unsigned char 
  statusNew       1    0[BANK0 ] unsigned char 
 Auto vars:     Size  Location     Type
  channelId       1    2[BANK0 ] unsigned char 
  i               1    3[BANK0 ] unsigned char 
 Return value:  Size  Location     Type
                  1    wreg      void 
 Registers used:
		wreg, fsr2l, fsr2h, status,2, status,0, prodl, prodh
 Tracked objects:
		On entry : 
		On exit  : 
		Unchanged: 
 Data sizes:     COMRAM   BANK0   BANK1   BANK2   BANK3   BANK4   BANK5   BANK6   BANK7   BANK8   BANK9  BANK10  BANK11  BANK12  BANK13  BANK14  BANK15
      Params:         0       1       0       0       0       0       0       0       0       0       0       0       0       0       0       0       0
      Locals:         0       2       0       0       0       0       0       0       0       0       0       0       0       0       0       0       0
      Temps:          0       1       0       0       0       0       0       0       0       0       0       0       0       0       0       0       0
      Totals:         0       4       0       0       0       0       0       0       0       0       0       0       0       0       0       0       0
Total ram usage:        4 bytes
 Hardware stack levels used:    1
 Hardware stack levels required when called:    7
 This function calls:
		Nothing
 This function is called by:
		_LORAWAN_SetChannelIdStatus
		_ExecuteNewChannel
		_EnableChannels1
 This function uses a non-reentrant model


 *************** function _ExecuteDutyCycle *****************
 Defined at:
		line 594 in file "mcc_generated_files/LoRaWAN/lorawan_eu.c"
 Parameters:    Size  Location     Type
  ptr             2    0[BANK0 ] PTR unsigned char 
		 -> LORAWAN_RxDone@hdr(2), radioBuffer(271), 
 Auto vars:     Size  Location     Type
  maxDCycle       1    5[BANK0 ] unsigned char 
 Return value:  Size  Location     Type
                  2    0[BANK0 ] PTR unsigned char 
 Registers used:
		wreg, fsr2l, fsr2h, status,2, status,0
 Tracked objects:
		On entry : 
		On exit  : 
		Unchanged: 
 Data sizes:     COMRAM   BANK0   BANK1   BANK2   BANK3   BANK4   BANK5   BANK6   BANK7   BANK8   BANK9  BANK10  BANK11  BANK12  BANK13  BANK14  BANK15
      Params:         0       2       0       0       0       0       0       0       0       0       0       0       0       0       0       0       0
      Locals:         0       1       0       0       0       0       0       0       0       0       0       0       0       0       0       0       0
      Temps:          0       3       0       0       0       0       0       0       0       0       0       0       0       0       0       0       0
      Totals:         0       6       0       0       0       0       0       0       0       0       0       0       0       0       0       0       0
Total ram usage:        6 bytes
 Hardware stack levels used:    1
 Hardware stack levels required when called:    7
 This function calls:
		Nothing
 This function is called by:
		_MacExecuteCommands
 This function uses a non-reentrant model


 *************** function _ExecuteDevStatus *****************
 Defined at:
		line 672 in file "mcc_generated_files/LoRaWAN/lorawan_eu.c"
 Parameters:    Size  Location     Type
  ptr             2    0[BANK0 ] PTR unsigned char 
		 -> LORAWAN_RxDone@hdr(2), radioBuffer(271), 
 Auto vars:     Size  Location     Type
		None
 Return value:  Size  Location     Type
                  2    0[BANK0 ] PTR unsigned char 
 Registers used:
		wreg, status,2, status,0
 Tracked objects:
		On entry : 
		On exit  : 
		Unchanged: 
 Data sizes:     COMRAM   BANK0   BANK1   BANK2   BANK3   BANK4   BANK5   BANK6   BANK7   BANK8   BANK9  BANK10  BANK11  BANK12  BANK13  BANK14  BANK15
      Params:         0       2       0       0       0       0       0       0       0       0       0       0       0       0       0       0       0
      Locals:         0       0       0       0       0       0       0       0       0       0       0       0       0       0       0       0       0
      Temps:          0       0       0       0       0       0       0       0       0       0       0       0       0       0       0       0       0
      Totals:         0       2       0       0       0       0       0       0       0       0       0       0       0       0       0       0       0
Total ram usage:        2 bytes
 Hardware stack levels used:    1
 Hardware stack levels required when called:    7
 This function calls:
		Nothing
 This function is called by:
		_MacExecuteCommands
 This function uses a non-reentrant model


 *************** function _LORAWAN_Send *****************
 Defined at:
		line 185 in file "mcc_generated_files/LoRaWAN/lorawan.c"
 Parameters:    Size  Location     Type
  confirmed       1    wreg     enum E7217
  port            1  115[BANK0 ] unsigned char 
  buffer          2  116[BANK0 ] PTR void 
		 -> STR_3(6), NULL(0), 
  bufferLength    1  118[BANK0 ] unsigned char 
 Auto vars:     Size  Location     Type
  confirmed       1  121[BANK0 ] enum E7217
  result          1  120[BANK0 ] enum E7190
 Return value:  Size  Location     Type
                  1    wreg      enum E7190
 Registers used:
		wreg, fsr0l, fsr0h, fsr2l, fsr2h, status,2, status,0, tblptrl, tblptrh, tblptru, prodl, prodh, cstack
 Tracked objects:
		On entry : 
		On exit  : 
		Unchanged: 
 Data sizes:     COMRAM   BANK0   BANK1   BANK2   BANK3   BANK4   BANK5   BANK6   BANK7   BANK8   BANK9  BANK10  BANK11  BANK12  BANK13  BANK14  BANK15
      Params:         0       4       0       0       0       0       0       0       0       0       0       0       0       0       0       0       0
      Locals:         0       2       0       0       0       0       0       0       0       0       0       0       0       0       0       0       0
      Temps:          0       1       0       0       0       0       0       0       0       0       0       0       0       0       0       0       0
      Totals:         0       7       0       0       0       0       0       0       0       0       0       0       0       0       0       0       0
Total ram usage:        7 bytes
 Hardware stack levels used:    1
 Hardware stack levels required when called:   13
 This function calls:
		_AssemblePacket
		_LORAWAN_GetMaxPayloadSize
		_RADIO_ReceiveStop
		_RADIO_Transmit
		_SelectChannelForTransmission
 This function is called by:
		_AutomaticReplyCallback
		_LORAWAN_RxDone
		_main
 This function uses a non-reentrant model


 *************** function _LORAWAN_GetMaxPayloadSize *****************
 Defined at:
		line 1556 in file "mcc_generated_files/LoRaWAN/lorawan.c"
 Parameters:    Size  Location     Type
		None
 Auto vars:     Size  Location     Type
  result          1   10[BANK0 ] unsigned char 
  macCommandsL    1    9[BANK0 ] unsigned char 
 Return value:  Size  Location     Type
                  1    wreg      unsigned char 
 Registers used:
		wreg, fsr2l, fsr2h, status,2, status,0, tblptrl, tblptrh, tblptru, prodl, prodh, cstack
 Tracked objects:
		On entry : 
		On exit  : 
		Unchanged: 
 Data sizes:     COMRAM   BANK0   BANK1   BANK2   BANK3   BANK4   BANK5   BANK6   BANK7   BANK8   BANK9  BANK10  BANK11  BANK12  BANK13  BANK14  BANK15
      Params:         0       0       0       0       0       0       0       0       0       0       0       0       0       0       0       0       0
      Locals:         0       2       0       0       0       0       0       0       0       0       0       0       0       0       0       0       0
      Temps:          0       1       0       0       0       0       0       0       0       0       0       0       0       0       0       0       0
      Totals:         0       3       0       0       0       0       0       0       0       0       0       0       0       0       0       0       0
Total ram usage:        3 bytes
 Hardware stack levels used:    1
 Hardware stack levels required when called:    8
 This function calls:
		_CountfOptsLength
 This function is called by:
		_LORAWAN_Send
		_AckRetransmissionCallback
 This function uses a non-reentrant model


 *************** function _AssemblePacket *****************
 Defined at:
		line 1672 in file "mcc_generated_files/LoRaWAN/lorawan.c"
 Parameters:    Size  Location     Type
  confirmed       1    wreg     unsigned char 
  port            1  103[BANK0 ] unsigned char 
  buffer          2  104[BANK0 ] PTR unsigned char 
		 -> STR_3(6), NULL(0), 
  bufferLength    2  106[BANK0 ] unsigned int 
 Auto vars:     Size  Location     Type
  confirmed       1  110[BANK0 ] unsigned char 
  bufferIndex     1  114[BANK0 ] unsigned char 
  macCmdIdx       1  113[BANK0 ] unsigned char 
  fCtrl           1  112[BANK0 ] struct .
  mhdr            1  111[BANK0 ] struct .
 Return value:  Size  Location     Type
                  1    wreg      void 
 Registers used:
		wreg, fsr0l, fsr0h, fsr2l, fsr2h, status,2, status,0, tblptrl, tblptrh, tblptru, prodl, prodh, cstack
 Tracked objects:
		On entry : 
		On exit  : 
		Unchanged: 
 Data sizes:     COMRAM   BANK0   BANK1   BANK2   BANK3   BANK4   BANK5   BANK6   BANK7   BANK8   BANK9  BANK10  BANK11  BANK12  BANK13  BANK14  BANK15
      Params:         0       5       0       0       0       0       0       0       0       0       0       0       0       0       0       0       0
      Locals:         0       5       0       0       0       0       0       0       0       0       0       0       0       0       0       0       0
      Temps:          0       2       0       0       0       0       0       0       0       0       0       0       0       0       0       0       0
      Totals:         0      12       0       0       0       0       0       0       0       0       0       0       0       0       0       0       0
Total ram usage:       12 bytes
 Hardware stack levels used:    1
 Hardware stack levels required when called:   12
 This function calls:
		_AESCmac
		_AssembleEncryptionBlock
		_CountfOptsLength
		_EncryptFRMPayload
		_FindSmallestDataRate
		_IncludeMacCommandsResponse
		_memcpy
		_memset
 This function is called by:
		_LORAWAN_Send
 This function uses a non-reentrant model


 *************** function _IncludeMacCommandsResponse *****************
 Defined at:
		line 1845 in file "mcc_generated_files/LoRaWAN/lorawan.c"
 Parameters:    Size  Location     Type
  macBuffer       2    0[BANK0 ] PTR unsigned char 
		 -> macBuffer(271), radioBuffer(271), 
  pBufferIndex    2    2[BANK0 ] PTR unsigned char 
		 -> AssemblePacket@macCmdIdx(1), AssemblePacket@bufferIndex(1), 
  bIncludeInFo    1    4[BANK0 ] unsigned char 
 Auto vars:     Size  Location     Type
  bufferIndex     1   14[BANK0 ] unsigned char 
  i               1   13[BANK0 ] unsigned char 
 Return value:  Size  Location     Type
                  1    wreg      void 
 Registers used:
		wreg, fsr0l, fsr0h, fsr2l, fsr2h, status,2, status,0, tblptrl, tblptrh, tblptru, prodl, prodh, cstack
 Tracked objects:
		On entry : 
		On exit  : 
		Unchanged: 
 Data sizes:     COMRAM   BANK0   BANK1   BANK2   BANK3   BANK4   BANK5   BANK6   BANK7   BANK8   BANK9  BANK10  BANK11  BANK12  BANK13  BANK14  BANK15
      Params:         0       5       0       0       0       0       0       0       0       0       0       0       0       0       0       0       0
      Locals:         0       2       0       0       0       0       0       0       0       0       0       0       0       0       0       0       0
      Temps:          0       8       0       0       0       0       0       0       0       0       0       0       0       0       0       0       0
      Totals:         0      15       0       0       0       0       0       0       0       0       0       0       0       0       0       0       0
Total ram usage:       15 bytes
 Hardware stack levels used:    1
 Hardware stack levels required when called:    8
 This function calls:
		_RADIO_GetPacketSnr
 This function is called by:
		_AssemblePacket
 This function uses a non-reentrant model


 *************** function _RADIO_GetPacketSnr *****************
 Defined at:
		line 1429 in file "mcc_generated_files/LoRaWAN/radio_driver_SX1276.c"
 Parameters:    Size  Location     Type
		None
 Auto vars:     Size  Location     Type
		None
 Return value:  Size  Location     Type
                  1    wreg      char 
 Registers used:
		wreg, status,2
 Tracked objects:
		On entry : 
		On exit  : 
		Unchanged: 
 Data sizes:     COMRAM   BANK0   BANK1   BANK2   BANK3   BANK4   BANK5   BANK6   BANK7   BANK8   BANK9  BANK10  BANK11  BANK12  BANK13  BANK14  BANK15
      Params:         0       0       0       0       0       0       0       0       0       0       0       0       0       0       0       0       0
      Locals:         0       0       0       0       0       0       0       0       0       0       0       0       0       0       0       0       0
      Temps:          0       0       0       0       0       0       0       0       0       0       0       0       0       0       0       0       0
      Totals:         0       0       0       0       0       0       0       0       0       0       0       0       0       0       0       0       0
Total ram usage:        0 bytes
 Hardware stack levels used:    1
 Hardware stack levels required when called:    7
 This function calls:
		Nothing
 This function is called by:
		_IncludeMacCommandsResponse
 This function uses a non-reentrant model


 *************** function _FindSmallestDataRate *****************
 Defined at:
		line 1963 in file "mcc_generated_files/LoRaWAN/lorawan.c"
 Parameters:    Size  Location     Type
		None
 Auto vars:     Size  Location     Type
  dataRate        1    3[BANK0 ] unsigned char 
  i               1    2[BANK0 ] unsigned char 
  found           1    1[BANK0 ] unsigned char 
 Return value:  Size  Location     Type
                  1    wreg      unsigned char 
 Registers used:
		wreg, fsr2l, fsr2h, status,2, status,0, prodl, prodh
 Tracked objects:
		On entry : 
		On exit  : 
		Unchanged: 
 Data sizes:     COMRAM   BANK0   BANK1   BANK2   BANK3   BANK4   BANK5   BANK6   BANK7   BANK8   BANK9  BANK10  BANK11  BANK12  BANK13  BANK14  BANK15
      Params:         0       0       0       0       0       0       0       0       0       0       0       0       0       0       0       0       0
      Locals:         0       3       0       0       0       0       0       0       0       0       0       0       0       0       0       0       0
      Temps:          0       1       0       0       0       0       0       0       0       0       0       0       0       0       0       0       0
      Totals:         0       4       0       0       0       0       0       0       0       0       0       0       0       0       0       0       0
Total ram usage:        4 bytes
 Hardware stack levels used:    1
 Hardware stack levels required when called:    7
 This function calls:
		Nothing
 This function is called by:
		_AckRetransmissionCallback
		_AssemblePacket
 This function uses a non-reentrant model


 *************** function _EncryptFRMPayload *****************
 Defined at:
		line 2205 in file "mcc_generated_files/LoRaWAN/lorawan.c"
 Parameters:    Size  Location     Type
  buffer          2   49[BANK0 ] PTR unsigned char 
		 -> STR_3(6), LORAWAN_RxDone@hdr(2), radioBuffer(271), NULL(0), 
  bufferLength    1   51[BANK0 ] unsigned char 
  dir             1   52[BANK0 ] unsigned char 
  frameCounter    4   53[BANK0 ] unsigned long 
  key             2   57[BANK0 ] PTR unsigned char 
		 -> loRa.activationParameters(105), loRa(245), 
  macBufferInd    1   59[BANK0 ] unsigned char 
  bufferToBeEn    2   60[BANK0 ] PTR unsigned char 
		 -> macBuffer(271), radioBuffer(271), 
  multicastSta    1   62[BANK0 ] unsigned char 
 Auto vars:     Size  Location     Type
  j               1   72[BANK0 ] unsigned char 
  i               1   71[BANK0 ] unsigned char 
  k               1   70[BANK0 ] unsigned char 
 Return value:  Size  Location     Type
                  1    wreg      void 
 Registers used:
		wreg, fsr0l, fsr0h, fsr2l, fsr2h, status,2, status,0, tblptrl, tblptrh, tblptru, prodl, prodh, cstack
 Tracked objects:
		On entry : 
		On exit  : 
		Unchanged: 
 Data sizes:     COMRAM   BANK0   BANK1   BANK2   BANK3   BANK4   BANK5   BANK6   BANK7   BANK8   BANK9  BANK10  BANK11  BANK12  BANK13  BANK14  BANK15
      Params:         0      14       0       0       0       0       0       0       0       0       0       0       0       0       0       0       0
      Locals:         0       3       0       0       0       0       0       0       0       0       0       0       0       0       0       0       0
      Temps:          0       7       0       0       0       0       0       0       0       0       0       0       0       0       0       0       0
      Totals:         0      24       0       0       0       0       0       0       0       0       0       0       0       0       0       0       0
Total ram usage:       24 bytes
 Hardware stack levels used:    1
 Hardware stack levels required when called:   10
 This function calls:
		_AESEncodeLoRa
		_AssembleEncryptionBlock
		___awdiv
 This function is called by:
		_LORAWAN_RxDone
		_AssemblePacket
 This function uses a non-reentrant model


 *************** function ___awdiv *****************
 Defined at:
		line 8 in file "C:\Program Files (x86)\Microchip\xc8\v1.45\sources\common\awdiv.c"
 Parameters:    Size  Location     Type
  dividend        2    0[BANK0 ] int 
  divisor         2    2[BANK0 ] int 
 Auto vars:     Size  Location     Type
  quotient        2    6[BANK0 ] int 
  sign            1    5[BANK0 ] unsigned char 
  counter         1    4[BANK0 ] unsigned char 
 Return value:  Size  Location     Type
                  2    0[BANK0 ] int 
 Registers used:
		wreg, status,2, status,0
 Tracked objects:
		On entry : 
		On exit  : 
		Unchanged: 
 Data sizes:     COMRAM   BANK0   BANK1   BANK2   BANK3   BANK4   BANK5   BANK6   BANK7   BANK8   BANK9  BANK10  BANK11  BANK12  BANK13  BANK14  BANK15
      Params:         0       4       0       0       0       0       0       0       0       0       0       0       0       0       0       0       0
      Locals:         0       4       0       0       0       0       0       0       0       0       0       0       0       0       0       0       0
      Temps:          0       0       0       0       0       0       0       0       0       0       0       0       0       0       0       0       0
      Totals:         0       8       0       0       0       0       0       0       0       0       0       0       0       0       0       0       0
Total ram usage:        8 bytes
 Hardware stack levels used:    1
 Hardware stack levels required when called:    7
 This function calls:
		Nothing
 This function is called by:
		_EncryptFRMPayload
 This function uses a non-reentrant model


 *************** function _AssembleEncryptionBlock *****************
 Defined at:
		line 2156 in file "mcc_generated_files/LoRaWAN/lorawan.c"
 Parameters:    Size  Location     Type
  dir             1    wreg     unsigned char 
  frameCounter    4   11[BANK0 ] unsigned long 
  blockId         1   15[BANK0 ] unsigned char 
  firstByte       1   16[BANK0 ] unsigned char 
  multicastSta    1   17[BANK0 ] unsigned char 
 Auto vars:     Size  Location     Type
  dir             1   18[BANK0 ] unsigned char 
  bufferIndex     1   19[BANK0 ] unsigned char 
 Return value:  Size  Location     Type
                  1    wreg      void 
 Registers used:
		wreg, fsr0l, fsr0h, fsr2l, fsr2h, status,2, status,0, tblptrl, tblptrh, tblptru, prodl, prodh, cstack
 Tracked objects:
		On entry : 
		On exit  : 
		Unchanged: 
 Data sizes:     COMRAM   BANK0   BANK1   BANK2   BANK3   BANK4   BANK5   BANK6   BANK7   BANK8   BANK9  BANK10  BANK11  BANK12  BANK13  BANK14  BANK15
      Params:         0       7       0       0       0       0       0       0       0       0       0       0       0       0       0       0       0
      Locals:         0       2       0       0       0       0       0       0       0       0       0       0       0       0       0       0       0
      Temps:          0       0       0       0       0       0       0       0       0       0       0       0       0       0       0       0       0
      Totals:         0       9       0       0       0       0       0       0       0       0       0       0       0       0       0       0       0
Total ram usage:        9 bytes
 Hardware stack levels used:    1
 Hardware stack levels required when called:    8
 This function calls:
		_memcpy
		_memset
 This function is called by:
		_LORAWAN_RxDone
		_AssemblePacket
		_EncryptFRMPayload
 This function uses a non-reentrant model


 *************** function _CountfOptsLength *****************
 Defined at:
		line 2134 in file "mcc_generated_files/LoRaWAN/lorawan.c"
 Parameters:    Size  Location     Type
		None
 Auto vars:     Size  Location     Type
  i               1    7[BANK0 ] unsigned char 
  macCommandLe    1    6[BANK0 ] unsigned char 
 Return value:  Size  Location     Type
                  1    wreg      unsigned char 
 Registers used:
		wreg, fsr2l, fsr2h, status,2, status,0, tblptrl, tblptrh, tblptru, prodl, prodh
 Tracked objects:
		On entry : 
		On exit  : 
		Unchanged: 
 Data sizes:     COMRAM   BANK0   BANK1   BANK2   BANK3   BANK4   BANK5   BANK6   BANK7   BANK8   BANK9  BANK10  BANK11  BANK12  BANK13  BANK14  BANK15
      Params:         0       0       0       0       0       0       0       0       0       0       0       0       0       0       0       0       0
      Locals:         0       2       0       0       0       0       0       0       0       0       0       0       0       0       0       0       0
      Temps:          0       6       0       0       0       0       0       0       0       0       0       0       0       0       0       0       0
      Totals:         0       8       0       0       0       0       0       0       0       0       0       0       0       0       0       0       0
Total ram usage:        8 bytes
 Hardware stack levels used:    1
 Hardware stack levels required when called:    7
 This function calls:
		Nothing
 This function is called by:
		_LORAWAN_GetMaxPayloadSize
		_AssemblePacket
 This function uses a non-reentrant model


 *************** function _ExtractMic *****************
 Defined at:
		line 2187 in file "mcc_generated_files/LoRaWAN/lorawan.c"
 Parameters:    Size  Location     Type
  buffer          2   11[BANK0 ] PTR unsigned char 
		 -> LORAWAN_RxDone@hdr(2), radioBuffer(271), 
  bufferLength    1   13[BANK0 ] unsigned char 
 Auto vars:     Size  Location     Type
  mic             4   19[BANK0 ] unsigned long 
 Return value:  Size  Location     Type
                  4   11[BANK0 ] unsigned long 
 Registers used:
		wreg, fsr0l, fsr0h, fsr2l, fsr2h, status,2, status,0, tblptrl, tblptrh, tblptru, cstack
 Tracked objects:
		On entry : 
		On exit  : 
		Unchanged: 
 Data sizes:     COMRAM   BANK0   BANK1   BANK2   BANK3   BANK4   BANK5   BANK6   BANK7   BANK8   BANK9  BANK10  BANK11  BANK12  BANK13  BANK14  BANK15
      Params:         0       4       0       0       0       0       0       0       0       0       0       0       0       0       0       0       0
      Locals:         0       4       0       0       0       0       0       0       0       0       0       0       0       0       0       0       0
      Temps:          0       4       0       0       0       0       0       0       0       0       0       0       0       0       0       0       0
      Totals:         0      12       0       0       0       0       0       0       0       0       0       0       0       0       0       0       0
Total ram usage:       12 bytes
 Hardware stack levels used:    1
 Hardware stack levels required when called:    8
 This function calls:
		_memcpy
 This function is called by:
		_LORAWAN_RxDone
 This function uses a non-reentrant model


 *************** function _ComputeSessionKeys *****************
 Defined at:
		line 2062 in file "mcc_generated_files/LoRaWAN/lorawan.c"
 Parameters:    Size  Location     Type
  joinAcceptBu    2   49[BANK0 ] PTR struct .
		 -> LORAWAN_RxDone@hdr(2), radioBuffer(271), 
 Auto vars:     Size  Location     Type
		None
 Return value:  Size  Location     Type
                  1    wreg      void 
 Registers used:
		wreg, fsr0l, fsr0h, fsr2l, fsr2h, status,2, status,0, tblptrl, tblptrh, tblptru, prodl, prodh, cstack
 Tracked objects:
		On entry : 
		On exit  : 
		Unchanged: 
 Data sizes:     COMRAM   BANK0   BANK1   BANK2   BANK3   BANK4   BANK5   BANK6   BANK7   BANK8   BANK9  BANK10  BANK11  BANK12  BANK13  BANK14  BANK15
      Params:         0       2       0       0       0       0       0       0       0       0       0       0       0       0       0       0       0
      Locals:         0       0       0       0       0       0       0       0       0       0       0       0       0       0       0       0       0
      Temps:          0       0       0       0       0       0       0       0       0       0       0       0       0       0       0       0       0
      Totals:         0       2       0       0       0       0       0       0       0       0       0       0       0       0       0       0       0
Total ram usage:        2 bytes
 Hardware stack levels used:    1
 Hardware stack levels required when called:   10
 This function calls:
		_AESEncodeLoRa
		_PrepareSessionKeys
 This function is called by:
		_LORAWAN_RxDone
 This function uses a non-reentrant model


 *************** function _PrepareSessionKeys *****************
 Defined at:
		line 2045 in file "mcc_generated_files/LoRaWAN/lorawan.c"
 Parameters:    Size  Location     Type
  sessionKey      2   11[BANK0 ] PTR unsigned char 
		 -> loRa.activationParameters(105), loRa(245), 
  appNonce        2   13[BANK0 ] PTR unsigned char 
		 -> ComputeSessionKeys@joinAcceptBuffer(2), LORAWAN_RxDone@hdr(2), radioBuffer(271), 
  networkId       2   15[BANK0 ] PTR unsigned char 
		 -> ComputeSessionKeys@joinAcceptBuffer(2), LORAWAN_RxDone@hdr(2), radioBuffer(271), 
 Auto vars:     Size  Location     Type
  index           1   17[BANK0 ] unsigned char 
 Return value:  Size  Location     Type
                  1    wreg      void 
 Registers used:
		wreg, fsr0l, fsr0h, fsr2l, fsr2h, status,2, status,0, tblptrl, tblptrh, tblptru, prodl, prodh, cstack
 Tracked objects:
		On entry : 
		On exit  : 
		Unchanged: 
 Data sizes:     COMRAM   BANK0   BANK1   BANK2   BANK3   BANK4   BANK5   BANK6   BANK7   BANK8   BANK9  BANK10  BANK11  BANK12  BANK13  BANK14  BANK15
      Params:         0       6       0       0       0       0       0       0       0       0       0       0       0       0       0       0       0
      Locals:         0       1       0       0       0       0       0       0       0       0       0       0       0       0       0       0       0
      Temps:          0       0       0       0       0       0       0       0       0       0       0       0       0       0       0       0       0
      Totals:         0       7       0       0       0       0       0       0       0       0       0       0       0       0       0       0       0
Total ram usage:        7 bytes
 Hardware stack levels used:    1
 Hardware stack levels required when called:    8
 This function calls:
		_memcpy
		_memset
 This function is called by:
		_ComputeSessionKeys
 This function uses a non-reentrant model


 *************** function _CheckMcastFlags *****************
 Defined at:
		line 2097 in file "mcc_generated_files/LoRaWAN/lorawan.c"
 Parameters:    Size  Location     Type
  hdr             2    0[BANK0 ] PTR struct .
		 -> LORAWAN_RxDone@hdr(2), radioBuffer(271), 
 Auto vars:     Size  Location     Type
		None
 Return value:  Size  Location     Type
                  1    wreg      unsigned char 
 Registers used:
		wreg, fsr2l, fsr2h, status,2, status,0
 Tracked objects:
		On entry : 
		On exit  : 
		Unchanged: 
 Data sizes:     COMRAM   BANK0   BANK1   BANK2   BANK3   BANK4   BANK5   BANK6   BANK7   BANK8   BANK9  BANK10  BANK11  BANK12  BANK13  BANK14  BANK15
      Params:         0       2       0       0       0       0       0       0       0       0       0       0       0       0       0       0       0
      Locals:         0       0       0       0       0       0       0       0       0       0       0       0       0       0       0       0       0
      Temps:          0       0       0       0       0       0       0       0       0       0       0       0       0       0       0       0       0
      Totals:         0       2       0       0       0       0       0       0       0       0       0       0       0       0       0       0       0
Total ram usage:        2 bytes
 Hardware stack levels used:    1
 Hardware stack levels required when called:    7
 This function calls:
		Nothing
 This function is called by:
		_LORAWAN_RxDone
 This function uses a non-reentrant model


 *************** function _CheckFlags *****************
 Defined at:
		line 2074 in file "mcc_generated_files/LoRaWAN/lorawan.c"
 Parameters:    Size  Location     Type
  hdr             2    0[BANK0 ] PTR struct .
		 -> LORAWAN_RxDone@hdr(2), radioBuffer(271), 
 Auto vars:     Size  Location     Type
		None
 Return value:  Size  Location     Type
                  1    wreg      void 
 Registers used:
		wreg, fsr2l, fsr2h, status,2, status,0
 Tracked objects:
		On entry : 
		On exit  : 
		Unchanged: 
 Data sizes:     COMRAM   BANK0   BANK1   BANK2   BANK3   BANK4   BANK5   BANK6   BANK7   BANK8   BANK9  BANK10  BANK11  BANK12  BANK13  BANK14  BANK15
      Params:         0       2       0       0       0       0       0       0       0       0       0       0       0       0       0       0       0
      Locals:         0       0       0       0       0       0       0       0       0       0       0       0       0       0       0       0       0
      Temps:          0       0       0       0       0       0       0       0       0       0       0       0       0       0       0       0       0
      Totals:         0       2       0       0       0       0       0       0       0       0       0       0       0       0       0       0       0
Total ram usage:        2 bytes
 Hardware stack levels used:    1
 Hardware stack levels required when called:    7
 This function calls:
		Nothing
 This function is called by:
		_LORAWAN_RxDone
 This function uses a non-reentrant model


 *************** function _RADIO_FSKPacketSent *****************
 Defined at:
		line 1093 in file "mcc_generated_files/LoRaWAN/radio_driver_SX1276.c"
 Parameters:    Size  Location     Type
		None
 Auto vars:     Size  Location     Type
  timeOnAir       4  135[BANK0 ] unsigned long 
  irqFlags        1  143[BANK0 ] unsigned char 
 Return value:  Size  Location     Type
                  1    wreg      void 
 Registers used:
		wreg, fsr0l, fsr0h, fsr2l, fsr2h, status,2, status,0, pclath, tosl, tblptrl, tblptrh, tblptru, prodl, prodh, cstack
 Tracked objects:
		On entry : 
		On exit  : 
		Unchanged: 
 Data sizes:     COMRAM   BANK0   BANK1   BANK2   BANK3   BANK4   BANK5   BANK6   BANK7   BANK8   BANK9  BANK10  BANK11  BANK12  BANK13  BANK14  BANK15
      Params:         0       0       0       0       0       0       0       0       0       0       0       0       0       0       0       0       0
      Locals:         0       9       0       0       0       0       0       0       0       0       0       0       0       0       0       0       0
      Temps:          0       4       0       0       0       0       0       0       0       0       0       0       0       0       0       0       0
      Totals:         0      13       0       0       0       0       0       0       0       0       0       0       0       0       0       0       0
Total ram usage:       13 bytes
 Hardware stack levels used:    1
 Hardware stack levels required when called:   15
 This function calls:
		_LORAWAN_TxDone
		_RADIO_RegisterRead
		_RADIO_WriteMode
		_SwTimerReadValue
		_SwTimerStop
		___lmul
 This function is called by:
		_RADIO_DIO0
 This function uses a non-reentrant model


 *************** function _LORAWAN_TxDone *****************
 Defined at:
		line 365 in file "mcc_generated_files/LoRaWAN/lorawan_eu.c"
 Parameters:    Size  Location     Type
  timeOnAir       2   91[BANK0 ] unsigned int 
 Auto vars:     Size  Location     Type
  minim           4  126[BANK0 ] unsigned long 
  ticks           4  122[BANK0 ] unsigned long 
  delta           4  114[BANK0 ] unsigned long 
  i               1  130[BANK0 ] unsigned char 
  found           1  113[BANK0 ] unsigned char 
 Return value:  Size  Location     Type
                  1    wreg      void 
 Registers used:
		wreg, fsr0l, fsr0h, fsr2l, fsr2h, status,2, status,0, pclath, tosl, tblptrl, tblptrh, tblptru, prodl, prodh, cstack
 Tracked objects:
		On entry : 
		On exit  : 
		Unchanged: 
 Data sizes:     COMRAM   BANK0   BANK1   BANK2   BANK3   BANK4   BANK5   BANK6   BANK7   BANK8   BANK9  BANK10  BANK11  BANK12  BANK13  BANK14  BANK15
      Params:         0       2       0       0       0       0       0       0       0       0       0       0       0       0       0       0       0
      Locals:         0      26       0       0       0       0       0       0       0       0       0       0       0       0       0       0       0
      Temps:          0      12       0       0       0       0       0       0       0       0       0       0       0       0       0       0       0
      Totals:         0      40       0       0       0       0       0       0       0       0       0       0       0       0       0       0       0
Total ram usage:       40 bytes
 Hardware stack levels used:    1
 Hardware stack levels required when called:   14
 This function calls:
		_LORAWAN_EnterContinuousReceive
		_RADIO_GetStatus
		_RxData
		_SwTimerIsRunning
		_SwTimerReadValue
		_SwTimerSetTimeout
		_SwTimerStart
		_SwTimerStop
		___lldiv
		___lmul
 This function is called by:
		_RADIO_TxDone
		_RADIO_FSKPacketSent
		_RADIO_WatchdogTimeout
 This function uses a non-reentrant model


 *************** function _SwTimerReadValue *****************
 Defined at:
		line 193 in file "mcc_generated_files/LoRaWAN/sw_timer.c"
 Parameters:    Size  Location     Type
  timerId         1    wreg     unsigned char 
 Auto vars:     Size  Location     Type
  timerId         1   57[BANK0 ] unsigned char 
  ticksCount      4   53[BANK0 ] unsigned long 
 Return value:  Size  Location     Type
                  4   49[BANK0 ] unsigned long 
 Registers used:
		wreg, fsr2l, fsr2h, status,2, status,0, prodl, prodh, cstack
 Tracked objects:
		On entry : 
		On exit  : 
		Unchanged: 
 Data sizes:     COMRAM   BANK0   BANK1   BANK2   BANK3   BANK4   BANK5   BANK6   BANK7   BANK8   BANK9  BANK10  BANK11  BANK12  BANK13  BANK14  BANK15
      Params:         0       4       0       0       0       0       0       0       0       0       0       0       0       0       0       0       0
      Locals:         0       5       0       0       0       0       0       0       0       0       0       0       0       0       0       0       0
      Temps:          0       0       0       0       0       0       0       0       0       0       0       0       0       0       0       0       0
      Totals:         0       9       0       0       0       0       0       0       0       0       0       0       0       0       0       0       0
Total ram usage:        9 bytes
 Hardware stack levels used:    1
 Hardware stack levels required when called:   10
 This function calls:
		_SwTimersInterrupt
 This function is called by:
		_RADIO_TxDone
		_RADIO_FSKPacketSent
		_LORAWAN_TxDone
		_LORAWAN_Pause
 This function uses a non-reentrant model


 *************** function _SwTimerIsRunning *****************
 Defined at:
		line 207 in file "mcc_generated_files/LoRaWAN/sw_timer.c"
 Parameters:    Size  Location     Type
  timerId         1    wreg     unsigned char 
 Auto vars:     Size  Location     Type
  timerId         1    0[BANK0 ] unsigned char 
  isRunning       1    1[BANK0 ] unsigned char 
 Return value:  Size  Location     Type
                  1    wreg      unsigned char 
 Registers used:
		wreg, fsr2l, fsr2h, status,2, status,0, prodl, prodh
 Tracked objects:
		On entry : 
		On exit  : 
		Unchanged: 
 Data sizes:     COMRAM   BANK0   BANK1   BANK2   BANK3   BANK4   BANK5   BANK6   BANK7   BANK8   BANK9  BANK10  BANK11  BANK12  BANK13  BANK14  BANK15
      Params:         0       0       0       0       0       0       0       0       0       0       0       0       0       0       0       0       0
      Locals:         0       2       0       0       0       0       0       0       0       0       0       0       0       0       0       0       0
      Temps:          0       0       0       0       0       0       0       0       0       0       0       0       0       0       0       0       0
      Totals:         0       2       0       0       0       0       0       0       0       0       0       0       0       0       0       0       0
Total ram usage:        2 bytes
 Hardware stack levels used:    1
 Hardware stack levels required when called:    7
 This function calls:
		Nothing
 This function is called by:
		_LORAWAN_TxDone
 This function uses a non-reentrant model


 *************** function _RADIO_GetStatus *****************
 Defined at:
		line 1116 in file "mcc_generated_files/LoRaWAN/radio_driver_SX1276.c"
 Parameters:    Size  Location     Type
		None
 Auto vars:     Size  Location     Type
		None
 Return value:  Size  Location     Type
                  1    wreg      unsigned char 
 Registers used:
		wreg, status,2
 Tracked objects:
		On entry : 
		On exit  : 
		Unchanged: 
 Data sizes:     COMRAM   BANK0   BANK1   BANK2   BANK3   BANK4   BANK5   BANK6   BANK7   BANK8   BANK9  BANK10  BANK11  BANK12  BANK13  BANK14  BANK15
      Params:         0       0       0       0       0       0       0       0       0       0       0       0       0       0       0       0       0
      Locals:         0       0       0       0       0       0       0       0       0       0       0       0       0       0       0       0       0
      Temps:          0       0       0       0       0       0       0       0       0       0       0       0       0       0       0       0       0
      Totals:         0       0       0       0       0       0       0       0       0       0       0       0       0       0       0       0       0
Total ram usage:        0 bytes
 Hardware stack levels used:    1
 Hardware stack levels required when called:    7
 This function calls:
		Nothing
 This function is called by:
		_LORAWAN_TxDone
		_LORAWAN_ReceiveWindow2Callback
		_LORAWAN_RxDone
 This function uses a non-reentrant model


 *************** function _LORAWAN_EnterContinuousReceive *****************
 Defined at:
		line 915 in file "mcc_generated_files/LoRaWAN/lorawan.c"
 Parameters:    Size  Location     Type
		None
 Auto vars:     Size  Location     Type
		None
 Return value:  Size  Location     Type
                  1    wreg      void 
 Registers used:
		wreg, fsr0l, fsr0h, fsr2l, fsr2h, status,2, status,0, pclath, tosl, tblptrl, tblptrh, tblptru, prodl, prodh, cstack
 Tracked objects:
		On entry : 
		On exit  : 
		Unchanged: 
 Data sizes:     COMRAM   BANK0   BANK1   BANK2   BANK3   BANK4   BANK5   BANK6   BANK7   BANK8   BANK9  BANK10  BANK11  BANK12  BANK13  BANK14  BANK15
      Params:         0       0       0       0       0       0       0       0       0       0       0       0       0       0       0       0       0
      Locals:         0       0       0       0       0       0       0       0       0       0       0       0       0       0       0       0       0
      Temps:          0       0       0       0       0       0       0       0       0       0       0       0       0       0       0       0       0
      Totals:         0       0       0       0       0       0       0       0       0       0       0       0       0       0       0       0       0
Total ram usage:        0 bytes
 Hardware stack levels used:    1
 Hardware stack levels required when called:   13
 This function calls:
		_ConfigureRadioRx
		_RADIO_ReceiveStart
		_RADIO_ReceiveStop
		_RADIO_ReleaseData
		_ResetParametersForConfirmedTransmission
		_ResetParametersForUnconfirmedTransmission
		_RxData
 This function is called by:
		_LORAWAN_TxDone
		_LORAWAN_ReceiveWindow2Callback
		_LORAWAN_RxDone
		_SetReceptionNotOkState
 This function uses a non-reentrant model


 *************** function _RxData *****************
 Defined at:
		line 70 in file "main.c"
 Parameters:    Size  Location     Type
  pData           2    0[BANK0 ] PTR unsigned char 
		 -> LORAWAN_RxDone@hdr(2), radioBuffer(271), NULL(0), 
  dataLength      1    2[BANK0 ] unsigned char 
  status          1    3[BANK0 ] enum E7442
 Auto vars:     Size  Location     Type
		None
 Return value:  Size  Location     Type
                  1    wreg      void 
 Registers used:
		None
 Tracked objects:
		On entry : 
		On exit  : 
		Unchanged: 
 Data sizes:     COMRAM   BANK0   BANK1   BANK2   BANK3   BANK4   BANK5   BANK6   BANK7   BANK8   BANK9  BANK10  BANK11  BANK12  BANK13  BANK14  BANK15
      Params:         0       4       0       0       0       0       0       0       0       0       0       0       0       0       0       0       0
      Locals:         0       0       0       0       0       0       0       0       0       0       0       0       0       0       0       0       0
      Temps:          0       0       0       0       0       0       0       0       0       0       0       0       0       0       0       0       0
      Totals:         0       4       0       0       0       0       0       0       0       0       0       0       0       0       0       0       0
Total ram usage:        4 bytes
 Hardware stack levels used:    1
 Hardware stack levels required when called:    7
 This function calls:
		Nothing
 This function is called by:
		_main
		_LORAWAN_EnterContinuousReceive
		_LORAWAN_ReceiveWindow2Callback
		_SetReceptionNotOkState
		_LORAWAN_RxDone
		_LORAWAN_RxTimeout
		_LORAWAN_TxDone
		_AckRetransmissionCallback
		_UnconfirmedTransmissionCallback
 This function uses a non-reentrant model


 *************** function _ResetParametersForUnconfirmedTransmission *****************
 Defined at:
		line 1097 in file "mcc_generated_files/LoRaWAN/lorawan.c"
 Parameters:    Size  Location     Type
		None
 Auto vars:     Size  Location     Type
		None
 Return value:  Size  Location     Type
                  1    wreg      void 
 Registers used:
		wreg, status,2
 Tracked objects:
		On entry : 
		On exit  : 
		Unchanged: 
 Data sizes:     COMRAM   BANK0   BANK1   BANK2   BANK3   BANK4   BANK5   BANK6   BANK7   BANK8   BANK9  BANK10  BANK11  BANK12  BANK13  BANK14  BANK15
      Params:         0       0       0       0       0       0       0       0       0       0       0       0       0       0       0       0       0
      Locals:         0       0       0       0       0       0       0       0       0       0       0       0       0       0       0       0       0
      Temps:          0       0       0       0       0       0       0       0       0       0       0       0       0       0       0       0       0
      Totals:         0       0       0       0       0       0       0       0       0       0       0       0       0       0       0       0       0
Total ram usage:        0 bytes
 Hardware stack levels used:    1
 Hardware stack levels required when called:    7
 This function calls:
		Nothing
 This function is called by:
		_LORAWAN_RxTimeout
		_LORAWAN_ReceiveWindow2Callback
		_LORAWAN_EnterContinuousReceive
		_UnconfirmedTransmissionCallback
 This function uses a non-reentrant model


 *************** function _ResetParametersForConfirmedTransmission *****************
 Defined at:
		line 1090 in file "mcc_generated_files/LoRaWAN/lorawan.c"
 Parameters:    Size  Location     Type
		None
 Auto vars:     Size  Location     Type
		None
 Return value:  Size  Location     Type
                  1    wreg      void 
 Registers used:
		wreg, status,2
 Tracked objects:
		On entry : 
		On exit  : 
		Unchanged: 
 Data sizes:     COMRAM   BANK0   BANK1   BANK2   BANK3   BANK4   BANK5   BANK6   BANK7   BANK8   BANK9  BANK10  BANK11  BANK12  BANK13  BANK14  BANK15
      Params:         0       0       0       0       0       0       0       0       0       0       0       0       0       0       0       0       0
      Locals:         0       0       0       0       0       0       0       0       0       0       0       0       0       0       0       0       0
      Temps:          0       0       0       0       0       0       0       0       0       0       0       0       0       0       0       0       0
      Totals:         0       0       0       0       0       0       0       0       0       0       0       0       0       0       0       0       0
Total ram usage:        0 bytes
 Hardware stack levels used:    1
 Hardware stack levels required when called:    7
 This function calls:
		Nothing
 This function is called by:
		_LORAWAN_RxTimeout
		_LORAWAN_ReceiveWindow2Callback
		_LORAWAN_EnterContinuousReceive
		_AckRetransmissionCallback
 This function uses a non-reentrant model


 *************** function _RADIO_ReleaseData *****************
 Defined at:
		line 1134 in file "mcc_generated_files/LoRaWAN/radio_driver_SX1276.c"
 Parameters:    Size  Location     Type
		None
 Auto vars:     Size  Location     Type
		None
 Return value:  Size  Location     Type
                  1    wreg      void 
 Registers used:
		status,2, status,0
 Tracked objects:
		On entry : 
		On exit  : 
		Unchanged: 
 Data sizes:     COMRAM   BANK0   BANK1   BANK2   BANK3   BANK4   BANK5   BANK6   BANK7   BANK8   BANK9  BANK10  BANK11  BANK12  BANK13  BANK14  BANK15
      Params:         0       0       0       0       0       0       0       0       0       0       0       0       0       0       0       0       0
      Locals:         0       0       0       0       0       0       0       0       0       0       0       0       0       0       0       0       0
      Temps:          0       0       0       0       0       0       0       0       0       0       0       0       0       0       0       0       0
      Totals:         0       0       0       0       0       0       0       0       0       0       0       0       0       0       0       0       0
Total ram usage:        0 bytes
 Hardware stack levels used:    1
 Hardware stack levels required when called:    7
 This function calls:
		Nothing
 This function is called by:
		_LORAWAN_ReceiveWindow1Callback
		_LORAWAN_ReceiveWindow2Callback
		_LORAWAN_EnterContinuousReceive
		_LORAWAN_RxDone
 This function uses a non-reentrant model


 *************** function _RADIO_ReceiveStop *****************
 Defined at:
		line 951 in file "mcc_generated_files/LoRaWAN/radio_driver_SX1276.c"
 Parameters:    Size  Location     Type
		None
 Auto vars:     Size  Location     Type
		None
 Return value:  Size  Location     Type
                  1    wreg      void 
 Registers used:
		wreg, status,2, status,0, cstack
 Tracked objects:
		On entry : 
		On exit  : 
		Unchanged: 
 Data sizes:     COMRAM   BANK0   BANK1   BANK2   BANK3   BANK4   BANK5   BANK6   BANK7   BANK8   BANK9  BANK10  BANK11  BANK12  BANK13  BANK14  BANK15
      Params:         0       0       0       0       0       0       0       0       0       0       0       0       0       0       0       0       0
      Locals:         0       0       0       0       0       0       0       0       0       0       0       0       0       0       0       0       0
      Temps:          0       0       0       0       0       0       0       0       0       0       0       0       0       0       0       0       0
      Totals:         0       0       0       0       0       0       0       0       0       0       0       0       0       0       0       0       0
Total ram usage:        0 bytes
 Hardware stack levels used:    1
 Hardware stack levels required when called:   11
 This function calls:
		_RADIO_WriteMode
 This function is called by:
		_LORAWAN_Send
		_LORAWAN_ReceiveWindow1Callback
		_LORAWAN_ReceiveWindow2Callback
		_LORAWAN_EnterContinuousReceive
		_LORAWAN_SetClass
 This function uses a non-reentrant model


 *************** function _RADIO_ReceiveStart *****************
 Defined at:
		line 875 in file "mcc_generated_files/LoRaWAN/radio_driver_SX1276.c"
 Parameters:    Size  Location     Type
  rxWindowSize    2   81[BANK0 ] unsigned int 
 Auto vars:     Size  Location     Type
		None
 Return value:  Size  Location     Type
                  2   81[BANK0 ] enum E7038
 Registers used:
		wreg, fsr2l, fsr2h, status,2, status,0, prodl, prodh, cstack
 Tracked objects:
		On entry : 
		On exit  : 
		Unchanged: 
 Data sizes:     COMRAM   BANK0   BANK1   BANK2   BANK3   BANK4   BANK5   BANK6   BANK7   BANK8   BANK9  BANK10  BANK11  BANK12  BANK13  BANK14  BANK15
      Params:         0       2       0       0       0       0       0       0       0       0       0       0       0       0       0       0       0
      Locals:         0       4       0       0       0       0       0       0       0       0       0       0       0       0       0       0       0
      Temps:          0       4       0       0       0       0       0       0       0       0       0       0       0       0       0       0       0
      Totals:         0      10       0       0       0       0       0       0       0       0       0       0       0       0       0       0       0
Total ram usage:       10 bytes
 Hardware stack levels used:    1
 Hardware stack levels required when called:   12
 This function calls:
		_RADIO_RegisterWrite
		_RADIO_WriteConfiguration
		_RADIO_WriteMode
		_SwTimerSetTimeout
		_SwTimerStart
		___lldiv
 This function is called by:
		_LORAWAN_ReceiveWindow1Callback
		_LORAWAN_ReceiveWindow2Callback
		_LORAWAN_EnterContinuousReceive
 This function uses a non-reentrant model


 *************** function _ConfigureRadioRx *****************
 Defined at:
		line 2019 in file "mcc_generated_files/LoRaWAN/lorawan.c"
 Parameters:    Size  Location     Type
  dataRate        1    wreg     unsigned char 
  freq            4   19[BANK0 ] unsigned long 
 Auto vars:     Size  Location     Type
  dataRate        1   23[BANK0 ] unsigned char 
 Return value:  Size  Location     Type
                  1    wreg      void 
 Registers used:
		wreg, fsr0l, fsr0h, fsr2l, fsr2h, status,2, status,0, tblptrl, tblptrh, tblptru, prodl, prodh, cstack
 Tracked objects:
		On entry : 
		On exit  : 
		Unchanged: 
 Data sizes:     COMRAM   BANK0   BANK1   BANK2   BANK3   BANK4   BANK5   BANK6   BANK7   BANK8   BANK9  BANK10  BANK11  BANK12  BANK13  BANK14  BANK15
      Params:         0       4       0       0       0       0       0       0       0       0       0       0       0       0       0       0       0
      Locals:         0       1       0       0       0       0       0       0       0       0       0       0       0       0       0       0       0
      Temps:          0       0       0       0       0       0       0       0       0       0       0       0       0       0       0       0       0
      Totals:         0       5       0       0       0       0       0       0       0       0       0       0       0       0       0       0       0
Total ram usage:        5 bytes
 Hardware stack levels used:    1
 Hardware stack levels required when called:   10
 This function calls:
		_ConfigureRadio
		_RADIO_SetCRC
		_RADIO_SetIQInverted
 This function is called by:
		_LORAWAN_ReceiveWindow1Callback
		_LORAWAN_ReceiveWindow2Callback
		_LORAWAN_EnterContinuousReceive
 This function uses a non-reentrant model


 *************** function _INTERRUPT_GetDioStatus *****************
 Defined at:
		line 48 in file "mcc_generated_files/LoRaWAN/interrupt_manager_lora_addons.c"
 Parameters:    Size  Location     Type
		None
 Auto vars:     Size  Location     Type
  a               1    0[BANK0 ] unsigned char 
 Return value:  Size  Location     Type
                  1    wreg      unsigned char 
 Registers used:
		wreg, status,2
 Tracked objects:
		On entry : 
		On exit  : 
		Unchanged: 
 Data sizes:     COMRAM   BANK0   BANK1   BANK2   BANK3   BANK4   BANK5   BANK6   BANK7   BANK8   BANK9  BANK10  BANK11  BANK12  BANK13  BANK14  BANK15
      Params:         0       0       0       0       0       0       0       0       0       0       0       0       0       0       0       0       0
      Locals:         0       1       0       0       0       0       0       0       0       0       0       0       0       0       0       0       0
      Temps:          0       0       0       0       0       0       0       0       0       0       0       0       0       0       0       0       0
      Totals:         0       1       0       0       0       0       0       0       0       0       0       0       0       0       0       0       0
Total ram usage:        1 bytes
 Hardware stack levels used:    1
 Hardware stack levels required when called:    7
 This function calls:
		Nothing
 This function is called by:
		_LORAWAN_Mainloop
 This function uses a non-reentrant model


 *************** function _LORAWAN_Join *****************
 Defined at:
		line 115 in file "mcc_generated_files/LoRaWAN/lorawan.c"
 Parameters:    Size  Location     Type
  activationTy    1    wreg     enum E7213
 Auto vars:     Size  Location     Type
  activationTy    1  125[BANK0 ] enum E7213
  result          1  124[BANK0 ] enum E7190
  bufferIndex     1  123[BANK0 ] unsigned char 
 Return value:  Size  Location     Type
                  1    wreg      enum E7190
 Registers used:
		wreg, fsr0l, fsr0h, fsr2l, fsr2h, status,2, status,0, tblptrl, tblptrh, tblptru, prodl, prodh, cstack
 Tracked objects:
		On entry : 
		On exit  : 
		Unchanged: 
 Data sizes:     COMRAM   BANK0   BANK1   BANK2   BANK3   BANK4   BANK5   BANK6   BANK7   BANK8   BANK9  BANK10  BANK11  BANK12  BANK13  BANK14  BANK15
      Params:         0       0       0       0       0       0       0       0       0       0       0       0       0       0       0       0       0
      Locals:         0       3       0       0       0       0       0       0       0       0       0       0       0       0       0       0       0
      Temps:          0       0       0       0       0       0       0       0       0       0       0       0       0       0       0       0       0
      Totals:         0       3       0       0       0       0       0       0       0       0       0       0       0       0       0       0       0
Total ram usage:        3 bytes
 Hardware stack levels used:    1
 Hardware stack levels required when called:   14
 This function calls:
		_PrepareJoinRequestFrame
		_RADIO_Transmit
		_SelectChannelForTransmission
		_SwTimerSetTimeout
		_SwTimerStart
		_UpdateJoinInProgress
 This function is called by:
		_main
 This function uses a non-reentrant model


 *************** function _UpdateJoinInProgress *****************
 Defined at:
		line 2037 in file "mcc_generated_files/LoRaWAN/lorawan.c"
 Parameters:    Size  Location     Type
  state           1    wreg     unsigned char 
 Auto vars:     Size  Location     Type
  state           1    0[BANK0 ] unsigned char 
 Return value:  Size  Location     Type
                  1    wreg      void 
 Registers used:
		wreg, status,2, status,0
 Tracked objects:
		On entry : 
		On exit  : 
		Unchanged: 
 Data sizes:     COMRAM   BANK0   BANK1   BANK2   BANK3   BANK4   BANK5   BANK6   BANK7   BANK8   BANK9  BANK10  BANK11  BANK12  BANK13  BANK14  BANK15
      Params:         0       0       0       0       0       0       0       0       0       0       0       0       0       0       0       0       0
      Locals:         0       1       0       0       0       0       0       0       0       0       0       0       0       0       0       0       0
      Temps:          0       0       0       0       0       0       0       0       0       0       0       0       0       0       0       0       0
      Totals:         0       1       0       0       0       0       0       0       0       0       0       0       0       0       0       0       0
Total ram usage:        1 bytes
 Hardware stack levels used:    1
 Hardware stack levels required when called:    7
 This function calls:
		Nothing
 This function is called by:
		_LORAWAN_Join
 This function uses a non-reentrant model


 *************** function _SelectChannelForTransmission *****************
 Defined at:
		line 919 in file "mcc_generated_files/LoRaWAN/lorawan_eu.c"
 Parameters:    Size  Location     Type
  transmission    1    wreg     unsigned char 
 Auto vars:     Size  Location     Type
  transmission    1   91[BANK0 ] unsigned char 
  channelIndex    1   93[BANK0 ] unsigned char 
  result          1   92[BANK0 ] enum E7249
 Return value:  Size  Location     Type
                  1    wreg      enum E7249
 Registers used:
		wreg, fsr0l, fsr0h, fsr2l, fsr2h, status,2, status,0, tblptrl, tblptrh, tblptru, prodl, prodh, cstack
 Tracked objects:
		On entry : 
		On exit  : 
		Unchanged: 
 Data sizes:     COMRAM   BANK0   BANK1   BANK2   BANK3   BANK4   BANK5   BANK6   BANK7   BANK8   BANK9  BANK10  BANK11  BANK12  BANK13  BANK14  BANK15
      Params:         0       0       0       0       0       0       0       0       0       0       0       0       0       0       0       0       0
      Locals:         0       3       0       0       0       0       0       0       0       0       0       0       0       0       0       0       0
      Temps:          0       0       0       0       0       0       0       0       0       0       0       0       0       0       0       0       0
      Totals:         0       3       0       0       0       0       0       0       0       0       0       0       0       0       0       0       0
Total ram usage:        3 bytes
 Hardware stack levels used:    1
 Hardware stack levels required when called:   11
 This function calls:
		_ConfigureRadioTx
		_SearchAvailableChannel
 This function is called by:
		_LORAWAN_RxTimeout
		_LORAWAN_Join
		_LORAWAN_Send
		_AckRetransmissionCallback
		_UnconfirmedTransmissionCallback
 This function uses a non-reentrant model


 *************** function _SearchAvailableChannel *****************
 Defined at:
		line 778 in file "mcc_generated_files/LoRaWAN/lorawan_eu.c"
 Parameters:    Size  Location     Type
  maxChannels     1    wreg     unsigned char 
  transmission    1   79[BANK0 ] unsigned char 
  channelIndex    2   80[BANK0 ] PTR unsigned char 
		 -> LORAWAN_RxDone@channelIndex(1), SelectChannelForTransmission@channelIndex(1), 
 Auto vars:     Size  Location     Type
  maxChannels     1   88[BANK0 ] unsigned char 
  i               1   90[BANK0 ] unsigned char 
  randomNumber    1   89[BANK0 ] unsigned char 
  result          1   87[BANK0 ] enum E7249
  randomNumber    1   86[BANK0 ] unsigned char 
 Return value:  Size  Location     Type
                  1    wreg      enum E7249
 Registers used:
		wreg, fsr2l, fsr2h, status,2, status,0, prodl, prodh, cstack
 Tracked objects:
		On entry : 
		On exit  : 
		Unchanged: 
 Data sizes:     COMRAM   BANK0   BANK1   BANK2   BANK3   BANK4   BANK5   BANK6   BANK7   BANK8   BANK9  BANK10  BANK11  BANK12  BANK13  BANK14  BANK15
      Params:         0       3       0       0       0       0       0       0       0       0       0       0       0       0       0       0       0
      Locals:         0       5       0       0       0       0       0       0       0       0       0       0       0       0       0       0       0
      Temps:          0       4       0       0       0       0       0       0       0       0       0       0       0       0       0       0       0
      Totals:         0      12       0       0       0       0       0       0       0       0       0       0       0       0       0       0       0
Total ram usage:       12 bytes
 Hardware stack levels used:    1
 Hardware stack levels required when called:   10
 This function calls:
		_Random
 This function is called by:
		_SelectChannelForTransmission
		_LORAWAN_RxDone
 This function uses a non-reentrant model


 *************** function _ConfigureRadioTx *****************
 Defined at:
		line 1255 in file "mcc_generated_files/LoRaWAN/lorawan_eu.c"
 Parameters:    Size  Location     Type
  dataRate        1    wreg     unsigned char 
  freq            4   19[BANK0 ] unsigned long 
 Auto vars:     Size  Location     Type
  dataRate        1   23[BANK0 ] unsigned char 
  txPower         1   24[BANK0 ] char 
 Return value:  Size  Location     Type
                  1    wreg      void 
 Registers used:
		wreg, fsr0l, fsr0h, fsr2l, fsr2h, status,2, status,0, tblptrl, tblptrh, tblptru, prodl, prodh, cstack
 Tracked objects:
		On entry : 
		On exit  : 
		Unchanged: 
 Data sizes:     COMRAM   BANK0   BANK1   BANK2   BANK3   BANK4   BANK5   BANK6   BANK7   BANK8   BANK9  BANK10  BANK11  BANK12  BANK13  BANK14  BANK15
      Params:         0       4       0       0       0       0       0       0       0       0       0       0       0       0       0       0       0
      Locals:         0       2       0       0       0       0       0       0       0       0       0       0       0       0       0       0       0
      Temps:          0       0       0       0       0       0       0       0       0       0       0       0       0       0       0       0       0
      Totals:         0       6       0       0       0       0       0       0       0       0       0       0       0       0       0       0       0
Total ram usage:        6 bytes
 Hardware stack levels used:    1
 Hardware stack levels required when called:   10
 This function calls:
		_ConfigureRadio
		_RADIO_SetCRC
		_RADIO_SetIQInverted
		_RADIO_SetOutputPower
 This function is called by:
		_SelectChannelForTransmission
 This function uses a non-reentrant model


 *************** function _RADIO_SetOutputPower *****************
 Defined at:
		line 1464 in file "mcc_generated_files/LoRaWAN/radio_driver_SX1276.c"
 Parameters:    Size  Location     Type
  power           1    wreg     char 
 Auto vars:     Size  Location     Type
  power           1    0[BANK0 ] char 
 Return value:  Size  Location     Type
                  1    wreg      void 
 Registers used:
		wreg
 Tracked objects:
		On entry : 
		On exit  : 
		Unchanged: 
 Data sizes:     COMRAM   BANK0   BANK1   BANK2   BANK3   BANK4   BANK5   BANK6   BANK7   BANK8   BANK9  BANK10  BANK11  BANK12  BANK13  BANK14  BANK15
      Params:         0       0       0       0       0       0       0       0       0       0       0       0       0       0       0       0       0
      Locals:         0       1       0       0       0       0       0       0       0       0       0       0       0       0       0       0       0
      Temps:          0       0       0       0       0       0       0       0       0       0       0       0       0       0       0       0       0
      Totals:         0       1       0       0       0       0       0       0       0       0       0       0       0       0       0       0       0
Total ram usage:        1 bytes
 Hardware stack levels used:    1
 Hardware stack levels required when called:    7
 This function calls:
		Nothing
 This function is called by:
		_ConfigureRadioTx
 This function uses a non-reentrant model


 *************** function _RADIO_SetIQInverted *****************
 Defined at:
		line 1484 in file "mcc_generated_files/LoRaWAN/radio_driver_SX1276.c"
 Parameters:    Size  Location     Type
  iqInverted      1    wreg     unsigned char 
 Auto vars:     Size  Location     Type
  iqInverted      1    0[BANK0 ] unsigned char 
 Return value:  Size  Location     Type
                  1    wreg      void 
 Registers used:
		wreg
 Tracked objects:
		On entry : 
		On exit  : 
		Unchanged: 
 Data sizes:     COMRAM   BANK0   BANK1   BANK2   BANK3   BANK4   BANK5   BANK6   BANK7   BANK8   BANK9  BANK10  BANK11  BANK12  BANK13  BANK14  BANK15
      Params:         0       0       0       0       0       0       0       0       0       0       0       0       0       0       0       0       0
      Locals:         0       1       0       0       0       0       0       0       0       0       0       0       0       0       0       0       0
      Temps:          0       0       0       0       0       0       0       0       0       0       0       0       0       0       0       0       0
      Totals:         0       1       0       0       0       0       0       0       0       0       0       0       0       0       0       0       0
Total ram usage:        1 bytes
 Hardware stack levels used:    1
 Hardware stack levels required when called:    7
 This function calls:
		Nothing
 This function is called by:
		_ConfigureRadioTx
		_ConfigureRadioRx
 This function uses a non-reentrant model


 *************** function _RADIO_SetCRC *****************
 Defined at:
		line 1474 in file "mcc_generated_files/LoRaWAN/radio_driver_SX1276.c"
 Parameters:    Size  Location     Type
  crc             1    wreg     unsigned char 
 Auto vars:     Size  Location     Type
  crc             1    0[BANK0 ] unsigned char 
 Return value:  Size  Location     Type
                  1    wreg      void 
 Registers used:
		wreg
 Tracked objects:
		On entry : 
		On exit  : 
		Unchanged: 
 Data sizes:     COMRAM   BANK0   BANK1   BANK2   BANK3   BANK4   BANK5   BANK6   BANK7   BANK8   BANK9  BANK10  BANK11  BANK12  BANK13  BANK14  BANK15
      Params:         0       0       0       0       0       0       0       0       0       0       0       0       0       0       0       0       0
      Locals:         0       1       0       0       0       0       0       0       0       0       0       0       0       0       0       0       0
      Temps:          0       0       0       0       0       0       0       0       0       0       0       0       0       0       0       0       0
      Totals:         0       1       0       0       0       0       0       0       0       0       0       0       0       0       0       0       0
Total ram usage:        1 bytes
 Hardware stack levels used:    1
 Hardware stack levels required when called:    7
 This function calls:
		Nothing
 This function is called by:
		_ConfigureRadioTx
		_ConfigureRadioRx
 This function uses a non-reentrant model


 *************** function _ConfigureRadio *****************
 Defined at:
		line 863 in file "mcc_generated_files/LoRaWAN/lorawan_eu.c"
 Parameters:    Size  Location     Type
  dataRate        1    wreg     unsigned char 
  freq            4   14[BANK0 ] unsigned long 
 Auto vars:     Size  Location     Type
  dataRate        1   18[BANK0 ] unsigned char 
 Return value:  Size  Location     Type
                  1    wreg      void 
 Registers used:
		wreg, fsr0l, fsr0h, fsr2l, fsr2h, status,2, status,0, tblptrl, tblptrh, tblptru, prodl, prodh, cstack
 Tracked objects:
		On entry : 
		On exit  : 
		Unchanged: 
 Data sizes:     COMRAM   BANK0   BANK1   BANK2   BANK3   BANK4   BANK5   BANK6   BANK7   BANK8   BANK9  BANK10  BANK11  BANK12  BANK13  BANK14  BANK15
      Params:         0       4       0       0       0       0       0       0       0       0       0       0       0       0       0       0       0
      Locals:         0       1       0       0       0       0       0       0       0       0       0       0       0       0       0       0       0
      Temps:          0       0       0       0       0       0       0       0       0       0       0       0       0       0       0       0       0
      Totals:         0       5       0       0       0       0       0       0       0       0       0       0       0       0       0       0       0
Total ram usage:        5 bytes
 Hardware stack levels used:    1
 Hardware stack levels required when called:    9
 This function calls:
		_RADIO_SetBandwidth
		_RADIO_SetChannelFrequency
		_RADIO_SetFSKSyncWord
		_RADIO_SetFrequencyHopPeriod
		_RADIO_SetLoRaSyncWord
		_RADIO_SetModulation
		_RADIO_SetSpreadingFactor
 This function is called by:
		_ConfigureRadioTx
		_ConfigureRadioRx
 This function uses a non-reentrant model


 *************** function _RADIO_SetSpreadingFactor *****************
 Defined at:
		line 1434 in file "mcc_generated_files/LoRaWAN/radio_driver_SX1276.c"
 Parameters:    Size  Location     Type
  spreadingFac    1    wreg     enum E6994
 Auto vars:     Size  Location     Type
  spreadingFac    1    0[BANK0 ] enum E6994
 Return value:  Size  Location     Type
                  1    wreg      void 
 Registers used:
		wreg
 Tracked objects:
		On entry : 
		On exit  : 
		Unchanged: 
 Data sizes:     COMRAM   BANK0   BANK1   BANK2   BANK3   BANK4   BANK5   BANK6   BANK7   BANK8   BANK9  BANK10  BANK11  BANK12  BANK13  BANK14  BANK15
      Params:         0       0       0       0       0       0       0       0       0       0       0       0       0       0       0       0       0
      Locals:         0       1       0       0       0       0       0       0       0       0       0       0       0       0       0       0       0
      Temps:          0       0       0       0       0       0       0       0       0       0       0       0       0       0       0       0       0
      Totals:         0       1       0       0       0       0       0       0       0       0       0       0       0       0       0       0       0
Total ram usage:        1 bytes
 Hardware stack levels used:    1
 Hardware stack levels required when called:    7
 This function calls:
		Nothing
 This function is called by:
		_ConfigureRadio
 This function uses a non-reentrant model


 *************** function _RADIO_SetModulation *****************
 Defined at:
		line 1515 in file "mcc_generated_files/LoRaWAN/radio_driver_SX1276.c"
 Parameters:    Size  Location     Type
  modulation      1    wreg     enum E6984
 Auto vars:     Size  Location     Type
  modulation      1    0[BANK0 ] enum E6984
 Return value:  Size  Location     Type
                  1    wreg      void 
 Registers used:
		wreg
 Tracked objects:
		On entry : 
		On exit  : 
		Unchanged: 
 Data sizes:     COMRAM   BANK0   BANK1   BANK2   BANK3   BANK4   BANK5   BANK6   BANK7   BANK8   BANK9  BANK10  BANK11  BANK12  BANK13  BANK14  BANK15
      Params:         0       0       0       0       0       0       0       0       0       0       0       0       0       0       0       0       0
      Locals:         0       1       0       0       0       0       0       0       0       0       0       0       0       0       0       0       0
      Temps:          0       0       0       0       0       0       0       0       0       0       0       0       0       0       0       0       0
      Totals:         0       1       0       0       0       0       0       0       0       0       0       0       0       0       0       0       0
Total ram usage:        1 bytes
 Hardware stack levels used:    1
 Hardware stack levels required when called:    7
 This function calls:
		Nothing
 This function is called by:
		_ConfigureRadio
 This function uses a non-reentrant model


 *************** function _RADIO_SetFrequencyHopPeriod *****************
 Defined at:
		line 1550 in file "mcc_generated_files/LoRaWAN/radio_driver_SX1276.c"
 Parameters:    Size  Location     Type
  frequencyHop    2    0[BANK0 ] unsigned int 
 Auto vars:     Size  Location     Type
		None
 Return value:  Size  Location     Type
                  1    wreg      void 
 Registers used:
		None
 Tracked objects:
		On entry : 
		On exit  : 
		Unchanged: 
 Data sizes:     COMRAM   BANK0   BANK1   BANK2   BANK3   BANK4   BANK5   BANK6   BANK7   BANK8   BANK9  BANK10  BANK11  BANK12  BANK13  BANK14  BANK15
      Params:         0       2       0       0       0       0       0       0       0       0       0       0       0       0       0       0       0
      Locals:         0       0       0       0       0       0       0       0       0       0       0       0       0       0       0       0       0
      Temps:          0       0       0       0       0       0       0       0       0       0       0       0       0       0       0       0       0
      Totals:         0       2       0       0       0       0       0       0       0       0       0       0       0       0       0       0       0
Total ram usage:        2 bytes
 Hardware stack levels used:    1
 Hardware stack levels required when called:    7
 This function calls:
		Nothing
 This function is called by:
		_ConfigureRadio
 This function uses a non-reentrant model


 *************** function _RADIO_SetFSKSyncWord *****************
 Defined at:
		line 1624 in file "mcc_generated_files/LoRaWAN/radio_driver_SX1276.c"
 Parameters:    Size  Location     Type
  syncWordLen     1    wreg     unsigned char 
  syncWord        2   11[BANK0 ] PTR unsigned char 
		 -> FskSyncWordBuff(3), 
 Auto vars:     Size  Location     Type
  syncWordLen     1   13[BANK0 ] unsigned char 
 Return value:  Size  Location     Type
                  1    wreg      void 
 Registers used:
		wreg, fsr0l, fsr0h, fsr2l, fsr2h, status,2, status,0, tblptrl, tblptrh, tblptru, cstack
 Tracked objects:
		On entry : 
		On exit  : 
		Unchanged: 
 Data sizes:     COMRAM   BANK0   BANK1   BANK2   BANK3   BANK4   BANK5   BANK6   BANK7   BANK8   BANK9  BANK10  BANK11  BANK12  BANK13  BANK14  BANK15
      Params:         0       2       0       0       0       0       0       0       0       0       0       0       0       0       0       0       0
      Locals:         0       1       0       0       0       0       0       0       0       0       0       0       0       0       0       0       0
      Temps:          0       0       0       0       0       0       0       0       0       0       0       0       0       0       0       0       0
      Totals:         0       3       0       0       0       0       0       0       0       0       0       0       0       0       0       0       0
Total ram usage:        3 bytes
 Hardware stack levels used:    1
 Hardware stack levels required when called:    8
 This function calls:
		_memcpy
 This function is called by:
		_ConfigureRadio
 This function uses a non-reentrant model


 *************** function _RADIO_SetChannelFrequency *****************
 Defined at:
		line 1444 in file "mcc_generated_files/LoRaWAN/radio_driver_SX1276.c"
 Parameters:    Size  Location     Type
  frequency       4    0[BANK0 ] unsigned long 
 Auto vars:     Size  Location     Type
		None
 Return value:  Size  Location     Type
                  2    0[BANK0 ] enum E7038
 Registers used:
		wreg, status,2, status,0
 Tracked objects:
		On entry : 
		On exit  : 
		Unchanged: 
 Data sizes:     COMRAM   BANK0   BANK1   BANK2   BANK3   BANK4   BANK5   BANK6   BANK7   BANK8   BANK9  BANK10  BANK11  BANK12  BANK13  BANK14  BANK15
      Params:         0       4       0       0       0       0       0       0       0       0       0       0       0       0       0       0       0
      Locals:         0       0       0       0       0       0       0       0       0       0       0       0       0       0       0       0       0
      Temps:          0       0       0       0       0       0       0       0       0       0       0       0       0       0       0       0       0
      Totals:         0       4       0       0       0       0       0       0       0       0       0       0       0       0       0       0       0
Total ram usage:        4 bytes
 Hardware stack levels used:    1
 Hardware stack levels required when called:    7
 This function calls:
		Nothing
 This function is called by:
		_ConfigureRadio
 This function uses a non-reentrant model


 *************** function _RADIO_SetBandwidth *****************
 Defined at:
		line 1495 in file "mcc_generated_files/LoRaWAN/radio_driver_SX1276.c"
 Parameters:    Size  Location     Type
  bandwidth       1    wreg     enum E7002
 Auto vars:     Size  Location     Type
  bandwidth       1    0[BANK0 ] enum E7002
 Return value:  Size  Location     Type
                  1    wreg      void 
 Registers used:
		wreg
 Tracked objects:
		On entry : 
		On exit  : 
		Unchanged: 
 Data sizes:     COMRAM   BANK0   BANK1   BANK2   BANK3   BANK4   BANK5   BANK6   BANK7   BANK8   BANK9  BANK10  BANK11  BANK12  BANK13  BANK14  BANK15
      Params:         0       0       0       0       0       0       0       0       0       0       0       0       0       0       0       0       0
      Locals:         0       1       0       0       0       0       0       0       0       0       0       0       0       0       0       0       0
      Temps:          0       0       0       0       0       0       0       0       0       0       0       0       0       0       0       0       0
      Totals:         0       1       0       0       0       0       0       0       0       0       0       0       0       0       0       0       0
Total ram usage:        1 bytes
 Hardware stack levels used:    1
 Hardware stack levels required when called:    7
 This function calls:
		Nothing
 This function is called by:
		_ConfigureRadio
 This function uses a non-reentrant model


 *************** function _RADIO_Transmit *****************
 Defined at:
		line 786 in file "mcc_generated_files/LoRaWAN/radio_driver_SX1276.c"
 Parameters:    Size  Location     Type
  buffer          2   81[BANK0 ] PTR unsigned char 
		 -> macBuffer(271), 
  bufferLen       1   83[BANK0 ] unsigned char 
 Auto vars:     Size  Location     Type
  i               1   97[BANK0 ] unsigned char 
  regValue        1   96[BANK0 ] unsigned char 
 Return value:  Size  Location     Type
                  2   81[BANK0 ] enum E7038
 Registers used:
		wreg, fsr2l, fsr2h, status,2, status,0, prodl, prodh, cstack
 Tracked objects:
		On entry : 
		On exit  : 
		Unchanged: 
 Data sizes:     COMRAM   BANK0   BANK1   BANK2   BANK3   BANK4   BANK5   BANK6   BANK7   BANK8   BANK9  BANK10  BANK11  BANK12  BANK13  BANK14  BANK15
      Params:         0       3       0       0       0       0       0       0       0       0       0       0       0       0       0       0       0
      Locals:         0      10       0       0       0       0       0       0       0       0       0       0       0       0       0       0       0
      Temps:          0       4       0       0       0       0       0       0       0       0       0       0       0       0       0       0       0
      Totals:         0      17       0       0       0       0       0       0       0       0       0       0       0       0       0       0       0
Total ram usage:       17 bytes
 Hardware stack levels used:    1
 Hardware stack levels required when called:   12
 This function calls:
		_HALSPICSAssert
		_HALSPICSDeassert
		_HALSPISend
		_RADIO_RegisterRead
		_RADIO_RegisterWrite
		_RADIO_WriteConfiguration
		_RADIO_WriteMode
		_SwTimerSetTimeout
		_SwTimerStart
		_SwTimerStop
		___lldiv
 This function is called by:
		_LORAWAN_RxTimeout
		_LORAWAN_Join
		_LORAWAN_Send
		_AckRetransmissionCallback
		_UnconfirmedTransmissionCallback
 This function uses a non-reentrant model


 *************** function _RADIO_WriteConfiguration *****************
 Defined at:
		line 533 in file "mcc_generated_files/LoRaWAN/radio_driver_SX1276.c"
 Parameters:    Size  Location     Type
  symbolTimeou    2   70[BANK0 ] unsigned int 
 Auto vars:     Size  Location     Type
  tempValue       4   76[BANK0 ] unsigned long 
  regValue        1   80[BANK0 ] unsigned char 
  i               1   75[BANK0 ] unsigned char 
 Return value:  Size  Location     Type
                  1    wreg      void 
 Registers used:
		wreg, fsr2l, fsr2h, status,2, status,0, prodl, prodh, cstack
 Tracked objects:
		On entry : 
		On exit  : 
		Unchanged: 
 Data sizes:     COMRAM   BANK0   BANK1   BANK2   BANK3   BANK4   BANK5   BANK6   BANK7   BANK8   BANK9  BANK10  BANK11  BANK12  BANK13  BANK14  BANK15
      Params:         0       2       0       0       0       0       0       0       0       0       0       0       0       0       0       0       0
      Locals:         0       6       0       0       0       0       0       0       0       0       0       0       0       0       0       0       0
      Temps:          0       3       0       0       0       0       0       0       0       0       0       0       0       0       0       0       0
      Totals:         0      11       0       0       0       0       0       0       0       0       0       0       0       0       0       0       0
Total ram usage:       11 bytes
 Hardware stack levels used:    1
 Hardware stack levels required when called:   11
 This function calls:
		_RADIO_RegisterRead
		_RADIO_RegisterWrite
		_RADIO_WriteFSKBitRate
		_RADIO_WriteFSKFrequencyDeviation
		_RADIO_WriteFrequency
		_RADIO_WriteMode
		_RADIO_WritePower
		___lmul
 This function is called by:
		_RADIO_Transmit
		_RADIO_ReceiveStart
		_RADIO_TransmitCW
 This function uses a non-reentrant model


 *************** function _RADIO_WritePower *****************
 Defined at:
		line 342 in file "mcc_generated_files/LoRaWAN/radio_driver_SX1276.c"
 Parameters:    Size  Location     Type
  power           1    wreg     char 
 Auto vars:     Size  Location     Type
  power           1    6[BANK0 ] char 
  paDac           1    5[BANK0 ] unsigned char 
  ocp             1    4[BANK0 ] unsigned char 
 Return value:  Size  Location     Type
                  1    wreg      void 
 Registers used:
		wreg, status,2, status,0, cstack
 Tracked objects:
		On entry : 
		On exit  : 
		Unchanged: 
 Data sizes:     COMRAM   BANK0   BANK1   BANK2   BANK3   BANK4   BANK5   BANK6   BANK7   BANK8   BANK9  BANK10  BANK11  BANK12  BANK13  BANK14  BANK15
      Params:         0       0       0       0       0       0       0       0       0       0       0       0       0       0       0       0       0
      Locals:         0       3       0       0       0       0       0       0       0       0       0       0       0       0       0       0       0
      Temps:          0       0       0       0       0       0       0       0       0       0       0       0       0       0       0       0       0
      Totals:         0       3       0       0       0       0       0       0       0       0       0       0       0       0       0       0       0
Total ram usage:        3 bytes
 Hardware stack levels used:    1
 Hardware stack levels required when called:   10
 This function calls:
		_RADIO_RegisterRead
		_RADIO_RegisterWrite
 This function is called by:
		_RADIO_WriteConfiguration
 This function uses a non-reentrant model


 *************** function _RADIO_WriteFSKFrequencyDeviation *****************
 Defined at:
		line 294 in file "mcc_generated_files/LoRaWAN/radio_driver_SX1276.c"
 Parameters:    Size  Location     Type
  frequencyDev    4   13[BANK0 ] unsigned long 
 Auto vars:     Size  Location     Type
  num             4   17[BANK0 ] unsigned long 
 Return value:  Size  Location     Type
                  1    wreg      void 
 Registers used:
		wreg, status,2, status,0, cstack
 Tracked objects:
		On entry : 
		On exit  : 
		Unchanged: 
 Data sizes:     COMRAM   BANK0   BANK1   BANK2   BANK3   BANK4   BANK5   BANK6   BANK7   BANK8   BANK9  BANK10  BANK11  BANK12  BANK13  BANK14  BANK15
      Params:         0       4       0       0       0       0       0       0       0       0       0       0       0       0       0       0       0
      Locals:         0       4       0       0       0       0       0       0       0       0       0       0       0       0       0       0       0
      Temps:          0       0       0       0       0       0       0       0       0       0       0       0       0       0       0       0       0
      Totals:         0       8       0       0       0       0       0       0       0       0       0       0       0       0       0       0       0
Total ram usage:        8 bytes
 Hardware stack levels used:    1
 Hardware stack levels required when called:   10
 This function calls:
		_RADIO_RegisterWrite
		___lldiv
 This function is called by:
		_RADIO_WriteConfiguration
 This function uses a non-reentrant model


 *************** function _RADIO_WriteFSKBitRate *****************
 Defined at:
		line 316 in file "mcc_generated_files/LoRaWAN/radio_driver_SX1276.c"
 Parameters:    Size  Location     Type
  bitRate         4   13[BANK0 ] unsigned long 
 Auto vars:     Size  Location     Type
  num             4   17[BANK0 ] unsigned long 
 Return value:  Size  Location     Type
                  1    wreg      void 
 Registers used:
		wreg, status,2, status,0, cstack
 Tracked objects:
		On entry : 
		On exit  : 
		Unchanged: 
 Data sizes:     COMRAM   BANK0   BANK1   BANK2   BANK3   BANK4   BANK5   BANK6   BANK7   BANK8   BANK9  BANK10  BANK11  BANK12  BANK13  BANK14  BANK15
      Params:         0       4       0       0       0       0       0       0       0       0       0       0       0       0       0       0       0
      Locals:         0       4       0       0       0       0       0       0       0       0       0       0       0       0       0       0       0
      Temps:          0       0       0       0       0       0       0       0       0       0       0       0       0       0       0       0       0
      Totals:         0       8       0       0       0       0       0       0       0       0       0       0       0       0       0       0       0
Total ram usage:        8 bytes
 Hardware stack levels used:    1
 Hardware stack levels required when called:   10
 This function calls:
		_RADIO_RegisterWrite
		___lldiv
 This function is called by:
		_RADIO_WriteConfiguration
 This function uses a non-reentrant model


 *************** function _PrepareJoinRequestFrame *****************
 Defined at:
		line 1806 in file "mcc_generated_files/LoRaWAN/lorawan.c"
 Parameters:    Size  Location     Type
		None
 Auto vars:     Size  Location     Type
  mic             4  116[BANK0 ] unsigned long 
  bufferIndex     1  122[BANK0 ] unsigned char 
  iCtr            1  121[BANK0 ] unsigned char 
  mhdr            1  120[BANK0 ] struct .
 Return value:  Size  Location     Type
                  1    wreg      unsigned char 
 Registers used:
		wreg, fsr0l, fsr0h, fsr2l, fsr2h, status,2, status,0, tblptrl, tblptrh, tblptru, prodl, prodh, cstack
 Tracked objects:
		On entry : 
		On exit  : 
		Unchanged: 
 Data sizes:     COMRAM   BANK0   BANK1   BANK2   BANK3   BANK4   BANK5   BANK6   BANK7   BANK8   BANK9  BANK10  BANK11  BANK12  BANK13  BANK14  BANK15
      Params:         0       0       0       0       0       0       0       0       0       0       0       0       0       0       0       0       0
      Locals:         0       7       0       0       0       0       0       0       0       0       0       0       0       0       0       0       0
      Temps:          0       4       0       0       0       0       0       0       0       0       0       0       0       0       0       0       0
      Totals:         0      11       0       0       0       0       0       0       0       0       0       0       0       0       0       0       0
Total ram usage:       11 bytes
 Hardware stack levels used:    1
 Hardware stack levels required when called:   13
 This function calls:
		_ComputeMic
		_Random
		_memcpy
		_memset
 This function is called by:
		_LORAWAN_Join
 This function uses a non-reentrant model


 *************** function _Random *****************
 Defined at:
		line 1116 in file "mcc_generated_files/LoRaWAN/lorawan.c"
 Parameters:    Size  Location     Type
  max             2   77[BANK0 ] unsigned int 
 Auto vars:     Size  Location     Type
		None
 Return value:  Size  Location     Type
                  2   77[BANK0 ] unsigned int 
 Registers used:
		wreg, status,2, status,0, cstack
 Tracked objects:
		On entry : 
		On exit  : 
		Unchanged: 
 Data sizes:     COMRAM   BANK0   BANK1   BANK2   BANK3   BANK4   BANK5   BANK6   BANK7   BANK8   BANK9  BANK10  BANK11  BANK12  BANK13  BANK14  BANK15
      Params:         0       2       0       0       0       0       0       0       0       0       0       0       0       0       0       0       0
      Locals:         0       0       0       0       0       0       0       0       0       0       0       0       0       0       0       0       0
      Temps:          0       0       0       0       0       0       0       0       0       0       0       0       0       0       0       0       0
      Totals:         0       2       0       0       0       0       0       0       0       0       0       0       0       0       0       0       0
Total ram usage:        2 bytes
 Hardware stack levels used:    1
 Hardware stack levels required when called:    9
 This function calls:
		___lwmod
		_rand
 This function is called by:
		_SearchAvailableChannel
		_PrepareJoinRequestFrame
 This function uses a non-reentrant model


 *************** function _rand *****************
 Defined at:
		line 12 in file "C:\Program Files (x86)\Microchip\xc8\v1.45\sources\common\rand.c"
 Parameters:    Size  Location     Type
		None
 Auto vars:     Size  Location     Type
		None
 Return value:  Size  Location     Type
                  2   70[BANK0 ] int 
 Registers used:
		wreg, status,2, status,0, cstack
 Tracked objects:
		On entry : 
		On exit  : 
		Unchanged: 
 Data sizes:     COMRAM   BANK0   BANK1   BANK2   BANK3   BANK4   BANK5   BANK6   BANK7   BANK8   BANK9  BANK10  BANK11  BANK12  BANK13  BANK14  BANK15
      Params:         0       2       0       0       0       0       0       0       0       0       0       0       0       0       0       0       0
      Locals:         0       0       0       0       0       0       0       0       0       0       0       0       0       0       0       0       0
      Temps:          0       0       0       0       0       0       0       0       0       0       0       0       0       0       0       0       0
      Totals:         0       2       0       0       0       0       0       0       0       0       0       0       0       0       0       0       0
Total ram usage:        2 bytes
 Hardware stack levels used:    1
 Hardware stack levels required when called:    8
 This function calls:
		___lmul
 This function is called by:
		_Random
 This function uses a non-reentrant model


 *************** function ___lwmod *****************
 Defined at:
		line 8 in file "C:\Program Files (x86)\Microchip\xc8\v1.45\sources\common\lwmod.c"
 Parameters:    Size  Location     Type
  dividend        2   72[BANK0 ] unsigned int 
  divisor         2   74[BANK0 ] unsigned int 
 Auto vars:     Size  Location     Type
  counter         1   76[BANK0 ] unsigned char 
 Return value:  Size  Location     Type
                  2   72[BANK0 ] unsigned int 
 Registers used:
		wreg, status,2, status,0
 Tracked objects:
		On entry : 
		On exit  : 
		Unchanged: 
 Data sizes:     COMRAM   BANK0   BANK1   BANK2   BANK3   BANK4   BANK5   BANK6   BANK7   BANK8   BANK9  BANK10  BANK11  BANK12  BANK13  BANK14  BANK15
      Params:         0       4       0       0       0       0       0       0       0       0       0       0       0       0       0       0       0
      Locals:         0       1       0       0       0       0       0       0       0       0       0       0       0       0       0       0       0
      Temps:          0       0       0       0       0       0       0       0       0       0       0       0       0       0       0       0       0
      Totals:         0       5       0       0       0       0       0       0       0       0       0       0       0       0       0       0       0
Total ram usage:        5 bytes
 Hardware stack levels used:    1
 Hardware stack levels required when called:    7
 This function calls:
		Nothing
 This function is called by:
		_Random
 This function uses a non-reentrant model


 *************** function _ComputeMic *****************
 Defined at:
		line 2194 in file "mcc_generated_files/LoRaWAN/lorawan.c"
 Parameters:    Size  Location     Type
  key             2  103[BANK0 ] PTR unsigned char 
		 -> loRa.activationParameters(105), loRa(245), 
  buffer          2  105[BANK0 ] PTR unsigned char 
		 -> LORAWAN_RxDone@hdr(2), macBuffer(271), radioBuffer(271), 
  bufferLength    1  107[BANK0 ] unsigned char 
 Auto vars:     Size  Location     Type
  mic             4  108[BANK0 ] unsigned long 
 Return value:  Size  Location     Type
                  4  103[BANK0 ] unsigned long 
 Registers used:
		wreg, fsr0l, fsr0h, fsr2l, fsr2h, status,2, status,0, tblptrl, tblptrh, tblptru, prodl, prodh, cstack
 Tracked objects:
		On entry : 
		On exit  : 
		Unchanged: 
 Data sizes:     COMRAM   BANK0   BANK1   BANK2   BANK3   BANK4   BANK5   BANK6   BANK7   BANK8   BANK9  BANK10  BANK11  BANK12  BANK13  BANK14  BANK15
      Params:         0       5       0       0       0       0       0       0       0       0       0       0       0       0       0       0       0
      Locals:         0       4       0       0       0       0       0       0       0       0       0       0       0       0       0       0       0
      Temps:          0       0       0       0       0       0       0       0       0       0       0       0       0       0       0       0       0
      Totals:         0       9       0       0       0       0       0       0       0       0       0       0       0       0       0       0       0
Total ram usage:        9 bytes
 Hardware stack levels used:    1
 Hardware stack levels required when called:   12
 This function calls:
		_AESCmac
		_memcpy
 This function is called by:
		_LORAWAN_RxDone
		_PrepareJoinRequestFrame
 This function uses a non-reentrant model


 *************** function _AESCmac *****************
 Defined at:
		line 41 in file "mcc_generated_files/LoRaWAN/lorawan_aes_cmac.c"
 Parameters:    Size  Location     Type
  key             2   89[BANK0 ] PTR unsigned char 
		 -> loRa.activationParameters(105), loRa(245), 
  output          2   91[BANK0 ] PTR unsigned char 
		 -> aesBuffer(16), 
  input           2   93[BANK0 ] PTR unsigned char 
		 -> LORAWAN_RxDone@hdr(2), macBuffer(271), radioBuffer(271), 
  size            1   95[BANK0 ] unsigned char 
 Auto vars:     Size  Location     Type
  x              16   80[BANK1 ] unsigned char [16]
  y              16   64[BANK1 ] unsigned char [16]
  padded         16   48[BANK1 ] unsigned char [16]
  mLast          16   32[BANK1 ] unsigned char [16]
  k1             16   16[BANK1 ] unsigned char [16]
  k2             16    0[BANK1 ] unsigned char [16]
  ptr             2   96[BANK1 ] PTR unsigned char 
		 -> LORAWAN_RxDone@hdr(2), macBuffer(271), radioBuffer(271), NULL(0), 
  i               1  101[BANK1 ] unsigned char 
  j               1  100[BANK1 ] unsigned char 
  n               1   99[BANK1 ] unsigned char 
  flag            1   98[BANK1 ] unsigned char 
 Return value:  Size  Location     Type
                  1    wreg      void 
 Registers used:
		wreg, fsr0l, fsr0h, fsr2l, fsr2h, status,2, status,0, tblptrl, tblptrh, tblptru, prodl, prodh, cstack
 Tracked objects:
		On entry : 
		On exit  : 
		Unchanged: 
 Data sizes:     COMRAM   BANK0   BANK1   BANK2   BANK3   BANK4   BANK5   BANK6   BANK7   BANK8   BANK9  BANK10  BANK11  BANK12  BANK13  BANK14  BANK15
      Params:         0       7       0       0       0       0       0       0       0       0       0       0       0       0       0       0       0
      Locals:         0       0     102       0       0       0       0       0       0       0       0       0       0       0       0       0       0
      Temps:          0       7       0       0       0       0       0       0       0       0       0       0       0       0       0       0       0
      Totals:         0      14     102       0       0       0       0       0       0       0       0       0       0       0       0       0       0
Total ram usage:      116 bytes
 Hardware stack levels used:    1
 Hardware stack levels required when called:   11
 This function calls:
		_AESEncodeLoRa
		_GenerateSubkey
		_memcpy
		_memset
 This function is called by:
		_LORAWAN_RxDone
		_AssemblePacket
		_ComputeMic
 This function uses a non-reentrant model


 *************** function _GenerateSubkey *****************
 Defined at:
		line 124 in file "mcc_generated_files/LoRaWAN/lorawan_aes_cmac.c"
 Parameters:    Size  Location     Type
  key             2   49[BANK0 ] PTR unsigned char 
		 -> loRa.activationParameters(105), loRa(245), 
  k1              2   51[BANK0 ] PTR unsigned char 
		 -> AESCmac@k1(16), 
  k2              2   53[BANK0 ] PTR unsigned char 
		 -> AESCmac@k2(16), 
 Auto vars:     Size  Location     Type
  l              16   72[BANK0 ] unsigned char [16]
  const_Rb       16   56[BANK0 ] unsigned char [16]
  i               1   88[BANK0 ] unsigned char 
 Return value:  Size  Location     Type
                  1    wreg      void 
 Registers used:
		wreg, fsr0l, fsr0h, fsr2l, fsr2h, status,2, status,0, tblptrl, tblptrh, tblptru, prodl, prodh, cstack
 Tracked objects:
		On entry : 
		On exit  : 
		Unchanged: 
 Data sizes:     COMRAM   BANK0   BANK1   BANK2   BANK3   BANK4   BANK5   BANK6   BANK7   BANK8   BANK9  BANK10  BANK11  BANK12  BANK13  BANK14  BANK15
      Params:         0       6       0       0       0       0       0       0       0       0       0       0       0       0       0       0       0
      Locals:         0      33       0       0       0       0       0       0       0       0       0       0       0       0       0       0       0
      Temps:          0       1       0       0       0       0       0       0       0       0       0       0       0       0       0       0       0
      Totals:         0      40       0       0       0       0       0       0       0       0       0       0       0       0       0       0       0
Total ram usage:       40 bytes
 Hardware stack levels used:    1
 Hardware stack levels required when called:   10
 This function calls:
		_AESEncodeLoRa
		_FillSubKey
		_memset
 This function is called by:
		_AESCmac
 This function uses a non-reentrant model


 *************** function _FillSubKey *****************
 Defined at:
		line 167 in file "mcc_generated_files/LoRaWAN/lorawan_aes_cmac.c"
 Parameters:    Size  Location     Type
  source          2    0[BANK0 ] PTR unsigned char 
		 -> GenerateSubkey@l(16), AESCmac@k1(16), 
  key             2    2[BANK0 ] PTR unsigned char 
		 -> AESCmac@k2(16), AESCmac@k1(16), 
  size            1    4[BANK0 ] unsigned char 
 Auto vars:     Size  Location     Type
  i               1    7[BANK0 ] unsigned char 
  carry           1    6[BANK0 ] unsigned char 
 Return value:  Size  Location     Type
                  1    wreg      void 
 Registers used:
		wreg, fsr0l, fsr0h, fsr2l, fsr2h, status,2, status,0, prodl, prodh
 Tracked objects:
		On entry : 
		On exit  : 
		Unchanged: 
 Data sizes:     COMRAM   BANK0   BANK1   BANK2   BANK3   BANK4   BANK5   BANK6   BANK7   BANK8   BANK9  BANK10  BANK11  BANK12  BANK13  BANK14  BANK15
      Params:         0       5       0       0       0       0       0       0       0       0       0       0       0       0       0       0       0
      Locals:         0       2       0       0       0       0       0       0       0       0       0       0       0       0       0       0       0
      Temps:          0       1       0       0       0       0       0       0       0       0       0       0       0       0       0       0       0
      Totals:         0       8       0       0       0       0       0       0       0       0       0       0       0       0       0       0       0
Total ram usage:        8 bytes
 Hardware stack levels used:    1
 Hardware stack levels required when called:    7
 This function calls:
		Nothing
 This function is called by:
		_GenerateSubkey
 This function uses a non-reentrant model


 *************** function _AESEncodeLoRa *****************
 Defined at:
		line 34 in file "mcc_generated_files/LoRaWAN/lorawan_aes.c"
 Parameters:    Size  Location     Type
  block           2   29[BANK0 ] PTR unsigned char 
		 -> aesBuffer(16), LORAWAN_RxDone@hdr(2), loRa.activationParameters(105), radioBuffer(271), 
		 -> loRa(245), GenerateSubkey@l(16), AESCmac@y(16), AESCmac@x(16), 
  key             2   31[BANK0 ] PTR unsigned char 
		 -> loRa.activationParameters(105), loRa(245), 
 Auto vars:     Size  Location     Type
  useKey         16   33[BANK0 ] unsigned char [16]
 Return value:  Size  Location     Type
                  1    wreg      void 
 Registers used:
		wreg, fsr0l, fsr0h, fsr2l, fsr2h, status,2, status,0, tblptrl, tblptrh, tblptru, prodl, prodh, cstack
 Tracked objects:
		On entry : 
		On exit  : 
		Unchanged: 
 Data sizes:     COMRAM   BANK0   BANK1   BANK2   BANK3   BANK4   BANK5   BANK6   BANK7   BANK8   BANK9  BANK10  BANK11  BANK12  BANK13  BANK14  BANK15
      Params:         0       4       0       0       0       0       0       0       0       0       0       0       0       0       0       0       0
      Locals:         0      16       0       0       0       0       0       0       0       0       0       0       0       0       0       0       0
      Temps:          0       0       0       0       0       0       0       0       0       0       0       0       0       0       0       0       0
      Totals:         0      20       0       0       0       0       0       0       0       0       0       0       0       0       0       0       0
Total ram usage:       20 bytes
 Hardware stack levels used:    1
 Hardware stack levels required when called:    9
 This function calls:
		_AESEncode
		_memcpy
 This function is called by:
		_AESCmac
		_GenerateSubkey
		_LORAWAN_RxDone
		_ComputeSessionKeys
		_EncryptFRMPayload
 This function uses a non-reentrant model


 *************** function _AESEncode *****************
 Defined at:
		line 248 in file "mcc_generated_files/LoRaWAN/AES.c"
 Parameters:    Size  Location     Type
  block           2    6[BANK0 ] PTR unsigned char 
		 -> aesBuffer(16), LORAWAN_RxDone@hdr(2), loRa.activationParameters(105), radioBuffer(271), 
		 -> loRa(245), GenerateSubkey@l(16), AESCmac@y(16), AESCmac@x(16), 
  key             2    8[BANK0 ] PTR unsigned char 
		 -> AESEncodeLoRa@useKey(16), 
 Auto vars:     Size  Location     Type
  aux3            1   27[BANK0 ] unsigned char 
  aux1            1   26[BANK0 ] unsigned char 
  aux2            1   25[BANK0 ] unsigned char 
  aux             1   24[BANK0 ] unsigned char 
  i               1   28[BANK0 ] unsigned char 
  temp            1    0        unsigned char 
 Return value:  Size  Location     Type
                  1    wreg      void 
 Registers used:
		wreg, fsr0l, fsr0h, fsr2l, fsr2h, status,2, status,0, tblptrl, tblptrh, tblptru, prodl, prodh, cstack
 Tracked objects:
		On entry : 
		On exit  : 
		Unchanged: 
 Data sizes:     COMRAM   BANK0   BANK1   BANK2   BANK3   BANK4   BANK5   BANK6   BANK7   BANK8   BANK9  BANK10  BANK11  BANK12  BANK13  BANK14  BANK15
      Params:         0       4       0       0       0       0       0       0       0       0       0       0       0       0       0       0       0
      Locals:         0      11       0       0       0       0       0       0       0       0       0       0       0       0       0       0       0
      Temps:          0       8       0       0       0       0       0       0       0       0       0       0       0       0       0       0       0
      Totals:         0      23       0       0       0       0       0       0       0       0       0       0       0       0       0       0       0
Total ram usage:       23 bytes
 Hardware stack levels used:    1
 Hardware stack levels required when called:    8
 This function calls:
		_EncKeySchedule
		_EncodeShiftRow
 This function is called by:
		_AESEncodeLoRa
 This function uses a non-reentrant model


 *************** function _EncodeShiftRow *****************
 Defined at:
		line 385 in file "mcc_generated_files/LoRaWAN/AES.c"
 Parameters:    Size  Location     Type
  stateTable      2    0[BANK0 ] PTR unsigned char 
		 -> aesBuffer(16), LORAWAN_RxDone@hdr(2), loRa.activationParameters(105), radioBuffer(271), 
		 -> loRa(245), GenerateSubkey@l(16), AESCmac@y(16), AESCmac@x(16), 
 Auto vars:     Size  Location     Type
  temp            1    2[BANK0 ] unsigned char 
 Return value:  Size  Location     Type
                  1    wreg      void 
 Registers used:
		wreg, fsr0l, fsr0h, fsr2l, fsr2h, status,2, status,0
 Tracked objects:
		On entry : 
		On exit  : 
		Unchanged: 
 Data sizes:     COMRAM   BANK0   BANK1   BANK2   BANK3   BANK4   BANK5   BANK6   BANK7   BANK8   BANK9  BANK10  BANK11  BANK12  BANK13  BANK14  BANK15
      Params:         0       2       0       0       0       0       0       0       0       0       0       0       0       0       0       0       0
      Locals:         0       1       0       0       0       0       0       0       0       0       0       0       0       0       0       0       0
      Temps:          0       0       0       0       0       0       0       0       0       0       0       0       0       0       0       0       0
      Totals:         0       3       0       0       0       0       0       0       0       0       0       0       0       0       0       0       0
Total ram usage:        3 bytes
 Hardware stack levels used:    1
 Hardware stack levels required when called:    7
 This function calls:
		Nothing
 This function is called by:
		_AESEncode
 This function uses a non-reentrant model


 *************** function _EncKeySchedule *****************
 Defined at:
		line 337 in file "mcc_generated_files/LoRaWAN/AES.c"
 Parameters:    Size  Location     Type
  key             2    0[BANK0 ] PTR unsigned char 
		 -> AESEncodeLoRa@useKey(16), 
 Auto vars:     Size  Location     Type
		None
 Return value:  Size  Location     Type
                  1    wreg      void 
 Registers used:
		wreg, fsr2l, fsr2h, status,2, status,0, tblptrl, tblptrh, tblptru, prodl, prodh
 Tracked objects:
		On entry : 
		On exit  : 
		Unchanged: 
 Data sizes:     COMRAM   BANK0   BANK1   BANK2   BANK3   BANK4   BANK5   BANK6   BANK7   BANK8   BANK9  BANK10  BANK11  BANK12  BANK13  BANK14  BANK15
      Params:         0       2       0       0       0       0       0       0       0       0       0       0       0       0       0       0       0
      Locals:         0       2       0       0       0       0       0       0       0       0       0       0       0       0       0       0       0
      Temps:          0       2       0       0       0       0       0       0       0       0       0       0       0       0       0       0       0
      Totals:         0       6       0       0       0       0       0       0       0       0       0       0       0       0       0       0       0
Total ram usage:        6 bytes
 Hardware stack levels used:    1
 Hardware stack levels required when called:    7
 This function calls:
		Nothing
 This function is called by:
		_AESEncode
 This function uses a non-reentrant model


 *************** function _LORAWAN_Init *****************
 Defined at:
		line 123 in file "mcc_generated_files/LoRaWAN/lorawan_eu.c"
 Parameters:    Size  Location     Type
  RxPayload       2   82[BANK0 ] PTR FTN(PTR unsigned cha
		 -> RxData(1), 
  RxJoinRespon    2   84[BANK0 ] PTR FTN(unsigned char ,)
		 -> RxJoinResponse(1), 
 Auto vars:     Size  Location     Type
		None
 Return value:  Size  Location     Type
                  1    wreg      void 
 Registers used:
		wreg, fsr0l, fsr0h, fsr2l, fsr2h, status,2, status,0, tblptrl, tblptrh, tblptru, prodl, prodh, cstack
 Tracked objects:
		On entry : 
		On exit  : 
		Unchanged: 
 Data sizes:     COMRAM   BANK0   BANK1   BANK2   BANK3   BANK4   BANK5   BANK6   BANK7   BANK8   BANK9  BANK10  BANK11  BANK12  BANK13  BANK14  BANK15
      Params:         0       4       0       0       0       0       0       0       0       0       0       0       0       0       0       0       0
      Locals:         0       0       0       0       0       0       0       0       0       0       0       0       0       0       0       0       0
      Temps:          0       0       0       0       0       0       0       0       0       0       0       0       0       0       0       0       0
      Totals:         0       4       0       0       0       0       0       0       0       0       0       0       0       0       0       0       0
Total ram usage:        4 bytes
 Hardware stack levels used:    1
 Hardware stack levels required when called:   13
 This function calls:
		_CreateAllSoftwareTimers
		_LORAWAN_Reset
		_RADIO_Init
		_RADIO_ReadRandom
		_SetCallbackSoftwareTimers
		_StopAllSoftwareTimers
		_srand
 This function is called by:
		_main
 This function uses a non-reentrant model


 *************** function _srand *****************
 Defined at:
		line 6 in file "C:\Program Files (x86)\Microchip\xc8\v1.45\sources\common\rand.c"
 Parameters:    Size  Location     Type
  x               2   18[BANK0 ] unsigned int 
 Auto vars:     Size  Location     Type
		None
 Return value:  Size  Location     Type
                  1    wreg      void 
 Registers used:
		status,2
 Tracked objects:
		On entry : 
		On exit  : 
		Unchanged: 
 Data sizes:     COMRAM   BANK0   BANK1   BANK2   BANK3   BANK4   BANK5   BANK6   BANK7   BANK8   BANK9  BANK10  BANK11  BANK12  BANK13  BANK14  BANK15
      Params:         0       2       0       0       0       0       0       0       0       0       0       0       0       0       0       0       0
      Locals:         0       0       0       0       0       0       0       0       0       0       0       0       0       0       0       0       0
      Temps:          0       0       0       0       0       0       0       0       0       0       0       0       0       0       0       0       0
      Totals:         0       2       0       0       0       0       0       0       0       0       0       0       0       0       0       0       0
Total ram usage:        2 bytes
 Hardware stack levels used:    1
 Hardware stack levels required when called:    7
 This function calls:
		Nothing
 This function is called by:
		_LORAWAN_Init
 This function uses a non-reentrant model


 *************** function _SetCallbackSoftwareTimers *****************
 Defined at:
		line 951 in file "mcc_generated_files/LoRaWAN/lorawan_eu.c"
 Parameters:    Size  Location     Type
		None
 Auto vars:     Size  Location     Type
		None
 Return value:  Size  Location     Type
                  1    wreg      void 
 Registers used:
		wreg, fsr2l, fsr2h, status,2, status,0, prodl, prodh, cstack
 Tracked objects:
		On entry : 
		On exit  : 
		Unchanged: 
 Data sizes:     COMRAM   BANK0   BANK1   BANK2   BANK3   BANK4   BANK5   BANK6   BANK7   BANK8   BANK9  BANK10  BANK11  BANK12  BANK13  BANK14  BANK15
      Params:         0       0       0       0       0       0       0       0       0       0       0       0       0       0       0       0       0
      Locals:         0       0       0       0       0       0       0       0       0       0       0       0       0       0       0       0       0
      Temps:          0       0       0       0       0       0       0       0       0       0       0       0       0       0       0       0       0
      Totals:         0       0       0       0       0       0       0       0       0       0       0       0       0       0       0       0       0
Total ram usage:        0 bytes
 Hardware stack levels used:    1
 Hardware stack levels required when called:    8
 This function calls:
		_SwTimerSetCallback
 This function is called by:
		_LORAWAN_Init
 This function uses a non-reentrant model


 *************** function _RADIO_ReadRandom *****************
 Defined at:
		line 1367 in file "mcc_generated_files/LoRaWAN/radio_driver_SX1276.c"
 Parameters:    Size  Location     Type
		None
 Auto vars:     Size  Location     Type
  retVal          2   15[BANK0 ] unsigned int 
  i               1   17[BANK0 ] unsigned char 
 Return value:  Size  Location     Type
                  2   12[BANK0 ] unsigned int 
 Registers used:
		wreg, status,2, status,0, cstack
 Tracked objects:
		On entry : 
		On exit  : 
		Unchanged: 
 Data sizes:     COMRAM   BANK0   BANK1   BANK2   BANK3   BANK4   BANK5   BANK6   BANK7   BANK8   BANK9  BANK10  BANK11  BANK12  BANK13  BANK14  BANK15
      Params:         0       2       0       0       0       0       0       0       0       0       0       0       0       0       0       0       0
      Locals:         0       3       0       0       0       0       0       0       0       0       0       0       0       0       0       0       0
      Temps:          0       1       0       0       0       0       0       0       0       0       0       0       0       0       0       0       0
      Totals:         0       6       0       0       0       0       0       0       0       0       0       0       0       0       0       0       0
Total ram usage:        6 bytes
 Hardware stack levels used:    1
 Hardware stack levels required when called:   11
 This function calls:
		_RADIO_RegisterRead
		_RADIO_RegisterWrite
		_RADIO_WriteMode
		_SystemBlockingWaitMs
 This function is called by:
		_LORAWAN_Init
 This function uses a non-reentrant model


 *************** function _LORAWAN_Reset *****************
 Defined at:
		line 148 in file "mcc_generated_files/LoRaWAN/lorawan_eu.c"
 Parameters:    Size  Location     Type
  ismBandNew      1    wreg     enum E7280
 Auto vars:     Size  Location     Type
  ismBandNew      1   81[BANK0 ] enum E7280
 Return value:  Size  Location     Type
                  1    wreg      void 
 Registers used:
		wreg, fsr0l, fsr0h, fsr2l, fsr2h, status,2, status,0, tblptrl, tblptrh, tblptru, prodl, prodh, cstack
 Tracked objects:
		On entry : 
		On exit  : 
		Unchanged: 
 Data sizes:     COMRAM   BANK0   BANK1   BANK2   BANK3   BANK4   BANK5   BANK6   BANK7   BANK8   BANK9  BANK10  BANK11  BANK12  BANK13  BANK14  BANK15
      Params:         0       0       0       0       0       0       0       0       0       0       0       0       0       0       0       0       0
      Locals:         0       1       0       0       0       0       0       0       0       0       0       0       0       0       0       0       0
      Temps:          0       0       0       0       0       0       0       0       0       0       0       0       0       0       0       0       0
      Totals:         0       1       0       0       0       0       0       0       0       0       0       0       0       0       0       0       0
Total ram usage:        1 bytes
 Hardware stack levels used:    1
 Hardware stack levels required when called:   12
 This function calls:
		_InitDefault433Channels
		_InitDefault868Channels
		_LORAWAN_LinkCheckConfigure
		_RADIO_Init
		_RADIO_SetLoRaSyncWord
		_StopAllSoftwareTimers
		_UpdateMinMaxChDataRate
		_memset
 This function is called by:
		_LORAWAN_Init
 This function uses a non-reentrant model


 *************** function _UpdateMinMaxChDataRate *****************
 Defined at:
		line 1063 in file "mcc_generated_files/LoRaWAN/lorawan.c"
 Parameters:    Size  Location     Type
		None
 Auto vars:     Size  Location     Type
  i               1    1[BANK0 ] unsigned char 
 Return value:  Size  Location     Type
                  1    wreg      void 
 Registers used:
		wreg, fsr2l, fsr2h, status,2, status,0, prodl, prodh
 Tracked objects:
		On entry : 
		On exit  : 
		Unchanged: 
 Data sizes:     COMRAM   BANK0   BANK1   BANK2   BANK3   BANK4   BANK5   BANK6   BANK7   BANK8   BANK9  BANK10  BANK11  BANK12  BANK13  BANK14  BANK15
      Params:         0       0       0       0       0       0       0       0       0       0       0       0       0       0       0       0       0
      Locals:         0       1       0       0       0       0       0       0       0       0       0       0       0       0       0       0       0
      Temps:          0       1       0       0       0       0       0       0       0       0       0       0       0       0       0       0       0
      Totals:         0       2       0       0       0       0       0       0       0       0       0       0       0       0       0       0       0
Total ram usage:        2 bytes
 Hardware stack levels used:    1
 Hardware stack levels required when called:    7
 This function calls:
		Nothing
 This function is called by:
		_LORAWAN_Reset
 This function uses a non-reentrant model


 *************** function _StopAllSoftwareTimers *****************
 Defined at:
		line 965 in file "mcc_generated_files/LoRaWAN/lorawan_eu.c"
 Parameters:    Size  Location     Type
		None
 Auto vars:     Size  Location     Type
		None
 Return value:  Size  Location     Type
                  1    wreg      void 
 Registers used:
		wreg, fsr2l, fsr2h, status,2, status,0, prodl, prodh, cstack
 Tracked objects:
		On entry : 
		On exit  : 
		Unchanged: 
 Data sizes:     COMRAM   BANK0   BANK1   BANK2   BANK3   BANK4   BANK5   BANK6   BANK7   BANK8   BANK9  BANK10  BANK11  BANK12  BANK13  BANK14  BANK15
      Params:         0       0       0       0       0       0       0       0       0       0       0       0       0       0       0       0       0
      Locals:         0       0       0       0       0       0       0       0       0       0       0       0       0       0       0       0       0
      Temps:          0       0       0       0       0       0       0       0       0       0       0       0       0       0       0       0       0
      Totals:         0       0       0       0       0       0       0       0       0       0       0       0       0       0       0       0       0
Total ram usage:        0 bytes
 Hardware stack levels used:    1
 Hardware stack levels required when called:    8
 This function calls:
		_SwTimerStop
 This function is called by:
		_LORAWAN_Init
		_LORAWAN_Reset
 This function uses a non-reentrant model


 *************** function _RADIO_SetLoRaSyncWord *****************
 Defined at:
		line 522 in file "mcc_generated_files/LoRaWAN/radio_driver_SX1276.c"
 Parameters:    Size  Location     Type
  syncWord        1    wreg     unsigned char 
 Auto vars:     Size  Location     Type
  syncWord        1    0[BANK0 ] unsigned char 
 Return value:  Size  Location     Type
                  1    wreg      void 
 Registers used:
		wreg
 Tracked objects:
		On entry : 
		On exit  : 
		Unchanged: 
 Data sizes:     COMRAM   BANK0   BANK1   BANK2   BANK3   BANK4   BANK5   BANK6   BANK7   BANK8   BANK9  BANK10  BANK11  BANK12  BANK13  BANK14  BANK15
      Params:         0       0       0       0       0       0       0       0       0       0       0       0       0       0       0       0       0
      Locals:         0       1       0       0       0       0       0       0       0       0       0       0       0       0       0       0       0
      Temps:          0       0       0       0       0       0       0       0       0       0       0       0       0       0       0       0       0
      Totals:         0       1       0       0       0       0       0       0       0       0       0       0       0       0       0       0       0
Total ram usage:        1 bytes
 Hardware stack levels used:    1
 Hardware stack levels required when called:    7
 This function calls:
		Nothing
 This function is called by:
		_LORAWAN_Reset
		_ConfigureRadio
 This function uses a non-reentrant model


 *************** function _RADIO_Init *****************
 Defined at:
		line 422 in file "mcc_generated_files/LoRaWAN/radio_driver_SX1276.c"
 Parameters:    Size  Location     Type
  radioBuffer     2   25[BANK0 ] PTR unsigned char 
		 -> radioBuffer(271), 
  frequency       4   27[BANK0 ] unsigned long 
 Auto vars:     Size  Location     Type
		None
 Return value:  Size  Location     Type
                  1    wreg      void 
 Registers used:
		wreg, fsr2l, fsr2h, status,2, status,0, prodl, prodh, cstack
 Tracked objects:
		On entry : 
		On exit  : 
		Unchanged: 
 Data sizes:     COMRAM   BANK0   BANK1   BANK2   BANK3   BANK4   BANK5   BANK6   BANK7   BANK8   BANK9  BANK10  BANK11  BANK12  BANK13  BANK14  BANK15
      Params:         0       6       0       0       0       0       0       0       0       0       0       0       0       0       0       0       0
      Locals:         0       0       0       0       0       0       0       0       0       0       0       0       0       0       0       0       0
      Temps:          0       1       0       0       0       0       0       0       0       0       0       0       0       0       0       0       0
      Totals:         0       7       0       0       0       0       0       0       0       0       0       0       0       0       0       0       0
Total ram usage:        7 bytes
 Hardware stack levels used:    1
 Hardware stack levels required when called:   11
 This function calls:
		_RADIO_RegisterRead
		_RADIO_RegisterWrite
		_RADIO_Reset
		_RADIO_WriteFrequency
		_RADIO_WriteMode
		_SwTimerCreate
		_SwTimerSetCallback
		_SwTimerStop
 This function is called by:
		_LORAWAN_Init
		_LORAWAN_Reset
 This function uses a non-reentrant model


 *************** function _SwTimerSetCallback *****************
 Defined at:
		line 180 in file "mcc_generated_files/LoRaWAN/sw_timer.c"
 Parameters:    Size  Location     Type
  timerId         1    wreg     unsigned char 
  callback        2    0[BANK0 ] PTR FTN(unsigned char ,)
		 -> DutyCycleCallback(1), UpdateJoinSuccessState(1), UnconfirmedTransmissionCallback(1), AutomaticReplyCallback(1), 
		 -> AckRetransmissionCallback(1), LORAWAN_LinkCheckCallback(1), LORAWAN_ReceiveWindow1Callback(1), LORAWAN_ReceiveWindow2Callback(1), 
		 -> RADIO_WatchdogTimeout(1), RADIO_RxFSKTimeout(1), 
  callbackPara    1    2[BANK0 ] unsigned char 
 Auto vars:     Size  Location     Type
  timerId         1    3[BANK0 ] unsigned char 
 Return value:  Size  Location     Type
                  1    wreg      void 
 Registers used:
		wreg, fsr2l, fsr2h, status,2, status,0, prodl, prodh
 Tracked objects:
		On entry : 
		On exit  : 
		Unchanged: 
 Data sizes:     COMRAM   BANK0   BANK1   BANK2   BANK3   BANK4   BANK5   BANK6   BANK7   BANK8   BANK9  BANK10  BANK11  BANK12  BANK13  BANK14  BANK15
      Params:         0       3       0       0       0       0       0       0       0       0       0       0       0       0       0       0       0
      Locals:         0       1       0       0       0       0       0       0       0       0       0       0       0       0       0       0       0
      Temps:          0       0       0       0       0       0       0       0       0       0       0       0       0       0       0       0       0
      Totals:         0       4       0       0       0       0       0       0       0       0       0       0       0       0       0       0       0
Total ram usage:        4 bytes
 Hardware stack levels used:    1
 Hardware stack levels required when called:    7
 This function calls:
		Nothing
 This function is called by:
		_RADIO_Init
		_SetCallbackSoftwareTimers
 This function uses a non-reentrant model


 *************** function _RADIO_WriteMode *****************
 Defined at:
		line 147 in file "mcc_generated_files/LoRaWAN/radio_driver_SX1276.c"
 Parameters:    Size  Location     Type
  newMode         1    wreg     enum E7718
  newModulatio    1    5[BANK0 ] enum E6984
  blocking        1    6[BANK0 ] unsigned char 
 Auto vars:     Size  Location     Type
  newMode         1   10[BANK0 ] enum E7718
  opMode          1   11[BANK0 ] unsigned char 
  currentMode     1    9[BANK0 ] enum E7718
  dioMapping      1    8[BANK0 ] unsigned char 
  currentModul    1    7[BANK0 ] enum E6984
 Return value:  Size  Location     Type
                  1    wreg      void 
 Registers used:
		wreg, status,2, status,0, cstack
 Tracked objects:
		On entry : 
		On exit  : 
		Unchanged: 
 Data sizes:     COMRAM   BANK0   BANK1   BANK2   BANK3   BANK4   BANK5   BANK6   BANK7   BANK8   BANK9  BANK10  BANK11  BANK12  BANK13  BANK14  BANK15
      Params:         0       2       0       0       0       0       0       0       0       0       0       0       0       0       0       0       0
      Locals:         0       5       0       0       0       0       0       0       0       0       0       0       0       0       0       0       0
      Temps:          0       0       0       0       0       0       0       0       0       0       0       0       0       0       0       0       0
      Totals:         0       7       0       0       0       0       0       0       0       0       0       0       0       0       0       0       0
Total ram usage:        7 bytes
 Hardware stack levels used:    1
 Hardware stack levels required when called:   10
 This function calls:
		_HALDIO5PinValue
		_RADIO_RegisterRead
		_RADIO_RegisterWrite
		_SystemBlockingWaitMs
 This function is called by:
		_RADIO_Init
		_RADIO_WriteConfiguration
		_RADIO_Transmit
		_RADIO_ReceiveStart
		_RADIO_ReceiveStop
		_RADIO_RxDone
		_RADIO_FSKPayloadReady
		_RADIO_RxTimeout
		_RADIO_TxDone
		_RADIO_FSKPacketSent
		_RADIO_ReadRandom
		_RADIO_RxFSKTimeout
		_RADIO_WatchdogTimeout
		_RADIO_StopCW
 This function uses a non-reentrant model


 *************** function _RADIO_RegisterRead *****************
 Defined at:
		line 134 in file "mcc_generated_files/LoRaWAN/radio_driver_SX1276.c"
 Parameters:    Size  Location     Type
  reg             1    wreg     unsigned char 
 Auto vars:     Size  Location     Type
  reg             1    2[BANK0 ] unsigned char 
  readValue       1    3[BANK0 ] unsigned char 
 Return value:  Size  Location     Type
                  1    wreg      unsigned char 
 Registers used:
		wreg, status,2, status,0, cstack
 Tracked objects:
		On entry : 
		On exit  : 
		Unchanged: 
 Data sizes:     COMRAM   BANK0   BANK1   BANK2   BANK3   BANK4   BANK5   BANK6   BANK7   BANK8   BANK9  BANK10  BANK11  BANK12  BANK13  BANK14  BANK15
      Params:         0       0       0       0       0       0       0       0       0       0       0       0       0       0       0       0       0
      Locals:         0       2       0       0       0       0       0       0       0       0       0       0       0       0       0       0       0
      Temps:          0       0       0       0       0       0       0       0       0       0       0       0       0       0       0       0       0
      Totals:         0       2       0       0       0       0       0       0       0       0       0       0       0       0       0       0       0
Total ram usage:        2 bytes
 Hardware stack levels used:    1
 Hardware stack levels required when called:    9
 This function calls:
		_HALSPICSAssert
		_HALSPICSDeassert
		_HALSPISend
 This function is called by:
		_RADIO_WriteMode
		_RADIO_WritePower
		_RADIO_Init
		_RADIO_WriteConfiguration
		_RADIO_Transmit
		_RADIO_RxDone
		_RADIO_FSKPayloadReady
		_RADIO_FSKPacketSent
		_RADIO_FHSSChangeChannel
		_RADIO_DIO0
		_RADIO_DIO1
		_RADIO_DIO2
		_RADIO_DIO3
		_RADIO_DIO4
		_RADIO_DIO5
		_RADIO_ReadRandom
		_RADIO_RxFSKTimeout
 This function uses a non-reentrant model


 *************** function _HALDIO5PinValue *****************
 Defined at:
		line 95 in file "mcc_generated_files/LoRaWAN/radio_driver_hal.c"
 Parameters:    Size  Location     Type
		None
 Auto vars:     Size  Location     Type
		None
 Return value:  Size  Location     Type
                  1    wreg      unsigned char 
 Registers used:
		wreg
 Tracked objects:
		On entry : 
		On exit  : 
		Unchanged: 
 Data sizes:     COMRAM   BANK0   BANK1   BANK2   BANK3   BANK4   BANK5   BANK6   BANK7   BANK8   BANK9  BANK10  BANK11  BANK12  BANK13  BANK14  BANK15
      Params:         0       0       0       0       0       0       0       0       0       0       0       0       0       0       0       0       0
      Locals:         0       0       0       0       0       0       0       0       0       0       0       0       0       0       0       0       0
      Temps:          0       0       0       0       0       0       0       0       0       0       0       0       0       0       0       0       0
      Totals:         0       0       0       0       0       0       0       0       0       0       0       0       0       0       0       0       0
Total ram usage:        0 bytes
 Hardware stack levels used:    1
 Hardware stack levels required when called:    7
 This function calls:
		Nothing
 This function is called by:
		_RADIO_WriteMode
 This function uses a non-reentrant model


 *************** function _RADIO_WriteFrequency *****************
 Defined at:
		line 262 in file "mcc_generated_files/LoRaWAN/radio_driver_SX1276.c"
 Parameters:    Size  Location     Type
  frequency       4   13[BANK0 ] unsigned long 
 Auto vars:     Size  Location     Type
  num             4   21[BANK0 ] unsigned long 
  num_mod         4   17[BANK0 ] unsigned long 
 Return value:  Size  Location     Type
                  1    wreg      void 
 Registers used:
		wreg, status,2, status,0, cstack
 Tracked objects:
		On entry : 
		On exit  : 
		Unchanged: 
 Data sizes:     COMRAM   BANK0   BANK1   BANK2   BANK3   BANK4   BANK5   BANK6   BANK7   BANK8   BANK9  BANK10  BANK11  BANK12  BANK13  BANK14  BANK15
      Params:         0       4       0       0       0       0       0       0       0       0       0       0       0       0       0       0       0
      Locals:         0       8       0       0       0       0       0       0       0       0       0       0       0       0       0       0       0
      Temps:          0       0       0       0       0       0       0       0       0       0       0       0       0       0       0       0       0
      Totals:         0      12       0       0       0       0       0       0       0       0       0       0       0       0       0       0       0
Total ram usage:       12 bytes
 Hardware stack levels used:    1
 Hardware stack levels required when called:   10
 This function calls:
		_RADIO_RegisterWrite
		___lldiv
		___llmod
 This function is called by:
		_RADIO_Init
		_RADIO_WriteConfiguration
		_RADIO_FHSSChangeChannel
 This function uses a non-reentrant model


 *************** function ___llmod *****************
 Defined at:
		line 8 in file "C:\Program Files (x86)\Microchip\xc8\v1.45\sources\common\llmod.c"
 Parameters:    Size  Location     Type
  dividend        4    0[BANK0 ] unsigned long 
  divisor         4    4[BANK0 ] unsigned long 
 Auto vars:     Size  Location     Type
  counter         1    8[BANK0 ] unsigned char 
 Return value:  Size  Location     Type
                  4    0[BANK0 ] unsigned long 
 Registers used:
		wreg, status,2, status,0
 Tracked objects:
		On entry : 
		On exit  : 
		Unchanged: 
 Data sizes:     COMRAM   BANK0   BANK1   BANK2   BANK3   BANK4   BANK5   BANK6   BANK7   BANK8   BANK9  BANK10  BANK11  BANK12  BANK13  BANK14  BANK15
      Params:         0       8       0       0       0       0       0       0       0       0       0       0       0       0       0       0       0
      Locals:         0       1       0       0       0       0       0       0       0       0       0       0       0       0       0       0       0
      Temps:          0       0       0       0       0       0       0       0       0       0       0       0       0       0       0       0       0
      Totals:         0       9       0       0       0       0       0       0       0       0       0       0       0       0       0       0       0
Total ram usage:        9 bytes
 Hardware stack levels used:    1
 Hardware stack levels required when called:    7
 This function calls:
		Nothing
 This function is called by:
		_RADIO_WriteFrequency
 This function uses a non-reentrant model


 *************** function _RADIO_RegisterWrite *****************
 Defined at:
		line 126 in file "mcc_generated_files/LoRaWAN/radio_driver_SX1276.c"
 Parameters:    Size  Location     Type
  reg             1    wreg     unsigned char 
  value           1    2[BANK0 ] unsigned char 
 Auto vars:     Size  Location     Type
  reg             1    3[BANK0 ] unsigned char 
 Return value:  Size  Location     Type
                  1    wreg      void 
 Registers used:
		wreg, status,2, status,0, cstack
 Tracked objects:
		On entry : 
		On exit  : 
		Unchanged: 
 Data sizes:     COMRAM   BANK0   BANK1   BANK2   BANK3   BANK4   BANK5   BANK6   BANK7   BANK8   BANK9  BANK10  BANK11  BANK12  BANK13  BANK14  BANK15
      Params:         0       1       0       0       0       0       0       0       0       0       0       0       0       0       0       0       0
      Locals:         0       1       0       0       0       0       0       0       0       0       0       0       0       0       0       0       0
      Temps:          0       0       0       0       0       0       0       0       0       0       0       0       0       0       0       0       0
      Totals:         0       2       0       0       0       0       0       0       0       0       0       0       0       0       0       0       0
Total ram usage:        2 bytes
 Hardware stack levels used:    1
 Hardware stack levels required when called:    9
 This function calls:
		_HALSPICSAssert
		_HALSPICSDeassert
		_HALSPISend
 This function is called by:
		_RADIO_WriteMode
		_RADIO_WriteFrequency
		_RADIO_WriteFSKFrequencyDeviation
		_RADIO_WriteFSKBitRate
		_RADIO_WritePower
		_RADIO_Init
		_RADIO_WriteConfiguration
		_RADIO_Transmit
		_RADIO_ReceiveStart
		_RADIO_RxDone
		_RADIO_RxTimeout
		_RADIO_TxDone
		_RADIO_UnhandledInterrupt
		_RADIO_FHSSChangeChannel
		_RADIO_ReadRandom
		_RADIO_TransmitCW
 This function uses a non-reentrant model


 *************** function _HALSPISend *****************
 Defined at:
		line 73 in file "mcc_generated_files/LoRaWAN/radio_driver_hal.c"
 Parameters:    Size  Location     Type
  data            1    wreg     unsigned char 
 Auto vars:     Size  Location     Type
  data            1    1[BANK0 ] unsigned char 
 Return value:  Size  Location     Type
                  1    wreg      unsigned char 
 Registers used:
		wreg, status,2, cstack
 Tracked objects:
		On entry : 
		On exit  : 
		Unchanged: 
 Data sizes:     COMRAM   BANK0   BANK1   BANK2   BANK3   BANK4   BANK5   BANK6   BANK7   BANK8   BANK9  BANK10  BANK11  BANK12  BANK13  BANK14  BANK15
      Params:         0       0       0       0       0       0       0       0       0       0       0       0       0       0       0       0       0
      Locals:         0       1       0       0       0       0       0       0       0       0       0       0       0       0       0       0       0
      Temps:          0       0       0       0       0       0       0       0       0       0       0       0       0       0       0       0       0
      Totals:         0       1       0       0       0       0       0       0       0       0       0       0       0       0       0       0       0
Total ram usage:        1 bytes
 Hardware stack levels used:    1
 Hardware stack levels required when called:    8
 This function calls:
		_SPI2_Exchange8bit
 This function is called by:
		_RADIO_RegisterWrite
		_RADIO_RegisterRead
		_RADIO_Transmit
		_RADIO_RxDone
		_RADIO_FSKPayloadReady
 This function uses a non-reentrant model


 *************** function _SPI2_Exchange8bit *****************
 Defined at:
		line 79 in file "mcc_generated_files/spi2.c"
 Parameters:    Size  Location     Type
  data            1    wreg     unsigned char 
 Auto vars:     Size  Location     Type
  data            1    0[BANK0 ] unsigned char 
 Return value:  Size  Location     Type
                  1    wreg      unsigned char 
 Registers used:
		wreg, status,2
 Tracked objects:
		On entry : 
		On exit  : 
		Unchanged: 
 Data sizes:     COMRAM   BANK0   BANK1   BANK2   BANK3   BANK4   BANK5   BANK6   BANK7   BANK8   BANK9  BANK10  BANK11  BANK12  BANK13  BANK14  BANK15
      Params:         0       0       0       0       0       0       0       0       0       0       0       0       0       0       0       0       0
      Locals:         0       1       0       0       0       0       0       0       0       0       0       0       0       0       0       0       0
      Temps:          0       0       0       0       0       0       0       0       0       0       0       0       0       0       0       0       0
      Totals:         0       1       0       0       0       0       0       0       0       0       0       0       0       0       0       0       0
Total ram usage:        1 bytes
 Hardware stack levels used:    1
 Hardware stack levels required when called:    7
 This function calls:
		Nothing
 This function is called by:
		_HALSPISend
		_SPI2_Exchange8bitBuffer
 This function uses a non-reentrant model


 *************** function _HALSPICSDeassert *****************
 Defined at:
		line 68 in file "mcc_generated_files/LoRaWAN/radio_driver_hal.c"
 Parameters:    Size  Location     Type
		None
 Auto vars:     Size  Location     Type
		None
 Return value:  Size  Location     Type
                  1    wreg      void 
 Registers used:
		None
 Tracked objects:
		On entry : 
		On exit  : 
		Unchanged: 
 Data sizes:     COMRAM   BANK0   BANK1   BANK2   BANK3   BANK4   BANK5   BANK6   BANK7   BANK8   BANK9  BANK10  BANK11  BANK12  BANK13  BANK14  BANK15
      Params:         0       0       0       0       0       0       0       0       0       0       0       0       0       0       0       0       0
      Locals:         0       0       0       0       0       0       0       0       0       0       0       0       0       0       0       0       0
      Temps:          0       0       0       0       0       0       0       0       0       0       0       0       0       0       0       0       0
      Totals:         0       0       0       0       0       0       0       0       0       0       0       0       0       0       0       0       0
Total ram usage:        0 bytes
 Hardware stack levels used:    1
 Hardware stack levels required when called:    7
 This function calls:
		Nothing
 This function is called by:
		_RADIO_RegisterWrite
		_RADIO_RegisterRead
		_RADIO_Transmit
		_RADIO_RxDone
		_RADIO_FSKPayloadReady
 This function uses a non-reentrant model


 *************** function _HALSPICSAssert *****************
 Defined at:
		line 63 in file "mcc_generated_files/LoRaWAN/radio_driver_hal.c"
 Parameters:    Size  Location     Type
		None
 Auto vars:     Size  Location     Type
		None
 Return value:  Size  Location     Type
                  1    wreg      void 
 Registers used:
		None
 Tracked objects:
		On entry : 
		On exit  : 
		Unchanged: 
 Data sizes:     COMRAM   BANK0   BANK1   BANK2   BANK3   BANK4   BANK5   BANK6   BANK7   BANK8   BANK9  BANK10  BANK11  BANK12  BANK13  BANK14  BANK15
      Params:         0       0       0       0       0       0       0       0       0       0       0       0       0       0       0       0       0
      Locals:         0       0       0       0       0       0       0       0       0       0       0       0       0       0       0       0       0
      Temps:          0       0       0       0       0       0       0       0       0       0       0       0       0       0       0       0       0
      Totals:         0       0       0       0       0       0       0       0       0       0       0       0       0       0       0       0       0
Total ram usage:        0 bytes
 Hardware stack levels used:    1
 Hardware stack levels required when called:    7
 This function calls:
		Nothing
 This function is called by:
		_RADIO_RegisterWrite
		_RADIO_RegisterRead
		_RADIO_Transmit
		_RADIO_RxDone
		_RADIO_FSKPayloadReady
 This function uses a non-reentrant model


 *************** function _RADIO_Reset *****************
 Defined at:
		line 249 in file "mcc_generated_files/LoRaWAN/radio_driver_SX1276.c"
 Parameters:    Size  Location     Type
		None
 Auto vars:     Size  Location     Type
		None
 Return value:  Size  Location     Type
                  1    wreg      void 
 Registers used:
		wreg, status,2, status,0, cstack
 Tracked objects:
		On entry : 
		On exit  : 
		Unchanged: 
 Data sizes:     COMRAM   BANK0   BANK1   BANK2   BANK3   BANK4   BANK5   BANK6   BANK7   BANK8   BANK9  BANK10  BANK11  BANK12  BANK13  BANK14  BANK15
      Params:         0       0       0       0       0       0       0       0       0       0       0       0       0       0       0       0       0
      Locals:         0       0       0       0       0       0       0       0       0       0       0       0       0       0       0       0       0
      Temps:          0       0       0       0       0       0       0       0       0       0       0       0       0       0       0       0       0
      Totals:         0       0       0       0       0       0       0       0       0       0       0       0       0       0       0       0       0
Total ram usage:        0 bytes
 Hardware stack levels used:    1
 Hardware stack levels required when called:    8
 This function calls:
		_HALResetPinMakeInput
		_HALResetPinMakeOutput
		_HALResetPinOutputValue
		_SystemBlockingWaitMs
 This function is called by:
		_RADIO_Init
 This function uses a non-reentrant model


 *************** function _SystemBlockingWaitMs *****************
 Defined at:
		line 145 in file "mcc_generated_files/LoRaWAN/sw_timer.c"
 Parameters:    Size  Location     Type
  ms              4    0[BANK0 ] unsigned long 
 Auto vars:     Size  Location     Type
		None
 Return value:  Size  Location     Type
                  1    wreg      void 
 Registers used:
		wreg, status,2, status,0
 Tracked objects:
		On entry : 
		On exit  : 
		Unchanged: 
 Data sizes:     COMRAM   BANK0   BANK1   BANK2   BANK3   BANK4   BANK5   BANK6   BANK7   BANK8   BANK9  BANK10  BANK11  BANK12  BANK13  BANK14  BANK15
      Params:         0       4       0       0       0       0       0       0       0       0       0       0       0       0       0       0       0
      Locals:         0       0       0       0       0       0       0       0       0       0       0       0       0       0       0       0       0
      Temps:          0       1       0       0       0       0       0       0       0       0       0       0       0       0       0       0       0
      Totals:         0       5       0       0       0       0       0       0       0       0       0       0       0       0       0       0       0
Total ram usage:        5 bytes
 Hardware stack levels used:    1
 Hardware stack levels required when called:    7
 This function calls:
		Nothing
 This function is called by:
		_RADIO_WriteMode
		_RADIO_Reset
		_RADIO_ReadRandom
		_RADIO_StopCW
 This function uses a non-reentrant model


 *************** function _HALResetPinOutputValue *****************
 Defined at:
		line 55 in file "mcc_generated_files/LoRaWAN/radio_driver_hal.c"
 Parameters:    Size  Location     Type
  value           1    wreg     unsigned char 
 Auto vars:     Size  Location     Type
  value           1    0[BANK0 ] unsigned char 
 Return value:  Size  Location     Type
                  1    wreg      void 
 Registers used:
		wreg, status,2, status,0
 Tracked objects:
		On entry : 
		On exit  : 
		Unchanged: 
 Data sizes:     COMRAM   BANK0   BANK1   BANK2   BANK3   BANK4   BANK5   BANK6   BANK7   BANK8   BANK9  BANK10  BANK11  BANK12  BANK13  BANK14  BANK15
      Params:         0       0       0       0       0       0       0       0       0       0       0       0       0       0       0       0       0
      Locals:         0       1       0       0       0       0       0       0       0       0       0       0       0       0       0       0       0
      Temps:          0       0       0       0       0       0       0       0       0       0       0       0       0       0       0       0       0
      Totals:         0       1       0       0       0       0       0       0       0       0       0       0       0       0       0       0       0
Total ram usage:        1 bytes
 Hardware stack levels used:    1
 Hardware stack levels required when called:    7
 This function calls:
		Nothing
 This function is called by:
		_RADIO_Reset
 This function uses a non-reentrant model


 *************** function _HALResetPinMakeOutput *****************
 Defined at:
		line 45 in file "mcc_generated_files/LoRaWAN/radio_driver_hal.c"
 Parameters:    Size  Location     Type
		None
 Auto vars:     Size  Location     Type
		None
 Return value:  Size  Location     Type
                  1    wreg      void 
 Registers used:
		None
 Tracked objects:
		On entry : 
		On exit  : 
		Unchanged: 
 Data sizes:     COMRAM   BANK0   BANK1   BANK2   BANK3   BANK4   BANK5   BANK6   BANK7   BANK8   BANK9  BANK10  BANK11  BANK12  BANK13  BANK14  BANK15
      Params:         0       0       0       0       0       0       0       0       0       0       0       0       0       0       0       0       0
      Locals:         0       0       0       0       0       0       0       0       0       0       0       0       0       0       0       0       0
      Temps:          0       0       0       0       0       0       0       0       0       0       0       0       0       0       0       0       0
      Totals:         0       0       0       0       0       0       0       0       0       0       0       0       0       0       0       0       0
Total ram usage:        0 bytes
 Hardware stack levels used:    1
 Hardware stack levels required when called:    7
 This function calls:
		Nothing
 This function is called by:
		_RADIO_Reset
 This function uses a non-reentrant model


 *************** function _HALResetPinMakeInput *****************
 Defined at:
		line 50 in file "mcc_generated_files/LoRaWAN/radio_driver_hal.c"
 Parameters:    Size  Location     Type
		None
 Auto vars:     Size  Location     Type
		None
 Return value:  Size  Location     Type
                  1    wreg      void 
 Registers used:
		None
 Tracked objects:
		On entry : 
		On exit  : 
		Unchanged: 
 Data sizes:     COMRAM   BANK0   BANK1   BANK2   BANK3   BANK4   BANK5   BANK6   BANK7   BANK8   BANK9  BANK10  BANK11  BANK12  BANK13  BANK14  BANK15
      Params:         0       0       0       0       0       0       0       0       0       0       0       0       0       0       0       0       0
      Locals:         0       0       0       0       0       0       0       0       0       0       0       0       0       0       0       0       0
      Temps:          0       0       0       0       0       0       0       0       0       0       0       0       0       0       0       0       0
      Totals:         0       0       0       0       0       0       0       0       0       0       0       0       0       0       0       0       0
Total ram usage:        0 bytes
 Hardware stack levels used:    1
 Hardware stack levels required when called:    7
 This function calls:
		Nothing
 This function is called by:
		_RADIO_Reset
 This function uses a non-reentrant model


 *************** function _LORAWAN_LinkCheckConfigure *****************
 Defined at:
		line 755 in file "mcc_generated_files/LoRaWAN/lorawan.c"
 Parameters:    Size  Location     Type
  period          2   70[BANK0 ] unsigned int 
 Auto vars:     Size  Location     Type
  iCtr            1   80[BANK0 ] unsigned char 
 Return value:  Size  Location     Type
                  1    wreg      void 
 Registers used:
		wreg, fsr2l, fsr2h, status,2, status,0, prodl, prodh, cstack
 Tracked objects:
		On entry : 
		On exit  : 
		Unchanged: 
 Data sizes:     COMRAM   BANK0   BANK1   BANK2   BANK3   BANK4   BANK5   BANK6   BANK7   BANK8   BANK9  BANK10  BANK11  BANK12  BANK13  BANK14  BANK15
      Params:         0       2       0       0       0       0       0       0       0       0       0       0       0       0       0       0       0
      Locals:         0       5       0       0       0       0       0       0       0       0       0       0       0       0       0       0       0
      Temps:          0       4       0       0       0       0       0       0       0       0       0       0       0       0       0       0       0
      Totals:         0      11       0       0       0       0       0       0       0       0       0       0       0       0       0       0       0
Total ram usage:       11 bytes
 Hardware stack levels used:    1
 Hardware stack levels required when called:   11
 This function calls:
		_SwTimerSetTimeout
		_SwTimerStart
		_SwTimerStop
		___lldiv
		___lmul
 This function is called by:
		_LORAWAN_Reset
 This function uses a non-reentrant model


 *************** function ___lmul *****************
 Defined at:
		line 15 in file "C:\Program Files (x86)\Microchip\xc8\v1.45\sources\common\Umul32.c"
 Parameters:    Size  Location     Type
  multiplier      4   58[BANK0 ] unsigned long 
  multiplicand    4   62[BANK0 ] unsigned long 
 Auto vars:     Size  Location     Type
  product         4   66[BANK0 ] unsigned long 
 Return value:  Size  Location     Type
                  4   58[BANK0 ] unsigned long 
 Registers used:
		wreg, status,2, status,0
 Tracked objects:
		On entry : 
		On exit  : 
		Unchanged: 
 Data sizes:     COMRAM   BANK0   BANK1   BANK2   BANK3   BANK4   BANK5   BANK6   BANK7   BANK8   BANK9  BANK10  BANK11  BANK12  BANK13  BANK14  BANK15
      Params:         0       8       0       0       0       0       0       0       0       0       0       0       0       0       0       0       0
      Locals:         0       4       0       0       0       0       0       0       0       0       0       0       0       0       0       0       0
      Temps:          0       0       0       0       0       0       0       0       0       0       0       0       0       0       0       0       0
      Totals:         0      12       0       0       0       0       0       0       0       0       0       0       0       0       0       0       0
Total ram usage:       12 bytes
 Hardware stack levels used:    1
 Hardware stack levels required when called:    7
 This function calls:
		Nothing
 This function is called by:
		_RADIO_WriteConfiguration
		_RADIO_TxDone
		_RADIO_FSKPacketSent
		_LORAWAN_TxDone
		_ExecuteNewChannel
		_ExecuteRxParamSetupReq
		_UpdateCfList
		_LORAWAN_LinkCheckConfigure
		_rand
		_LORAWAN_Pause
 This function uses a non-reentrant model


 *************** function ___lldiv *****************
 Defined at:
		line 8 in file "C:\Program Files (x86)\Microchip\xc8\v1.45\sources\common\lldiv.c"
 Parameters:    Size  Location     Type
  dividend        4    0[BANK0 ] unsigned long 
  divisor         4    4[BANK0 ] unsigned long 
 Auto vars:     Size  Location     Type
  quotient        4    8[BANK0 ] unsigned long 
  counter         1   12[BANK0 ] unsigned char 
 Return value:  Size  Location     Type
                  4    0[BANK0 ] unsigned long 
 Registers used:
		wreg, status,2, status,0
 Tracked objects:
		On entry : 
		On exit  : 
		Unchanged: 
 Data sizes:     COMRAM   BANK0   BANK1   BANK2   BANK3   BANK4   BANK5   BANK6   BANK7   BANK8   BANK9  BANK10  BANK11  BANK12  BANK13  BANK14  BANK15
      Params:         0       8       0       0       0       0       0       0       0       0       0       0       0       0       0       0       0
      Locals:         0       5       0       0       0       0       0       0       0       0       0       0       0       0       0       0       0
      Temps:          0       0       0       0       0       0       0       0       0       0       0       0       0       0       0       0       0
      Totals:         0      13       0       0       0       0       0       0       0       0       0       0       0       0       0       0       0
Total ram usage:       13 bytes
 Hardware stack levels used:    1
 Hardware stack levels required when called:    7
 This function calls:
		Nothing
 This function is called by:
		_RADIO_WriteFrequency
		_RADIO_WriteFSKFrequencyDeviation
		_RADIO_WriteFSKBitRate
		_RADIO_Transmit
		_RADIO_ReceiveStart
		_LORAWAN_TxDone
		_LORAWAN_RxTimeout
		_StartReTxTimer
		_DutyCycleCallback
		_LORAWAN_LinkCheckConfigure
		_LORAWAN_LinkCheckCallback
		_UpdateRetransmissionAckTimeoutState
		_UpdateJoinSuccessState
 This function uses a non-reentrant model


 *************** function _SwTimerStop *****************
 Defined at:
		line 233 in file "mcc_generated_files/LoRaWAN/sw_timer.c"
 Parameters:    Size  Location     Type
  timerId         1    wreg     unsigned char 
 Auto vars:     Size  Location     Type
  timerId         1    0[BANK0 ] unsigned char 
 Return value:  Size  Location     Type
                  1    wreg      void 
 Registers used:
		wreg, fsr2l, fsr2h, status,2, status,0, prodl, prodh
 Tracked objects:
		On entry : 
		On exit  : 
		Unchanged: 
 Data sizes:     COMRAM   BANK0   BANK1   BANK2   BANK3   BANK4   BANK5   BANK6   BANK7   BANK8   BANK9  BANK10  BANK11  BANK12  BANK13  BANK14  BANK15
      Params:         0       0       0       0       0       0       0       0       0       0       0       0       0       0       0       0       0
      Locals:         0       1       0       0       0       0       0       0       0       0       0       0       0       0       0       0       0
      Temps:          0       0       0       0       0       0       0       0       0       0       0       0       0       0       0       0       0
      Totals:         0       1       0       0       0       0       0       0       0       0       0       0       0       0       0       0       0
Total ram usage:        1 bytes
 Hardware stack levels used:    1
 Hardware stack levels required when called:    7
 This function calls:
		Nothing
 This function is called by:
		_RADIO_Init
		_RADIO_Transmit
		_RADIO_RxDone
		_RADIO_FSKPayloadReady
		_RADIO_RxTimeout
		_RADIO_TxDone
		_RADIO_FSKPacketSent
		_RADIO_RxFSKTimeout
		_LORAWAN_TxDone
		_StopAllSoftwareTimers
		_LORAWAN_LinkCheckConfigure
		_LORAWAN_RxDone
 This function uses a non-reentrant model


 *************** function _SwTimerStart *****************
 Defined at:
		line 218 in file "mcc_generated_files/LoRaWAN/sw_timer.c"
 Parameters:    Size  Location     Type
  timerId         1    wreg     unsigned char 
 Auto vars:     Size  Location     Type
  timerId         1   57[BANK0 ] unsigned char 
  ticksRemaini    4   53[BANK0 ] unsigned long 
 Return value:  Size  Location     Type
                  1    wreg      void 
 Registers used:
		wreg, fsr2l, fsr2h, status,2, status,0, prodl, prodh, cstack
 Tracked objects:
		On entry : 
		On exit  : 
		Unchanged: 
 Data sizes:     COMRAM   BANK0   BANK1   BANK2   BANK3   BANK4   BANK5   BANK6   BANK7   BANK8   BANK9  BANK10  BANK11  BANK12  BANK13  BANK14  BANK15
      Params:         0       0       0       0       0       0       0       0       0       0       0       0       0       0       0       0       0
      Locals:         0       5       0       0       0       0       0       0       0       0       0       0       0       0       0       0       0
      Temps:          0       4       0       0       0       0       0       0       0       0       0       0       0       0       0       0       0
      Totals:         0       9       0       0       0       0       0       0       0       0       0       0       0       0       0       0       0
Total ram usage:        9 bytes
 Hardware stack levels used:    1
 Hardware stack levels required when called:   10
 This function calls:
		_SwTimersInterrupt
		_TMR_OverrideRemaining
 This function is called by:
		_RADIO_Transmit
		_RADIO_ReceiveStart
		_LORAWAN_TxDone
		_LORAWAN_RxTimeout
		_StartReTxTimer
		_DutyCycleCallback
		_LORAWAN_Join
		_LORAWAN_LinkCheckConfigure
		_LORAWAN_LinkCheckCallback
		_UpdateRetransmissionAckTimeoutState
		_UpdateJoinSuccessState
 This function uses a non-reentrant model


 *************** function _TMR_OverrideRemaining *****************
 Defined at:
		line 65 in file "mcc_generated_files/LoRaWAN/sw_timer.c"
 Parameters:    Size  Location     Type
  ticksRemaini    4   10[BANK0 ] unsigned long 
 Auto vars:     Size  Location     Type
  oldReloadVal    2   18[BANK0 ] unsigned int 
  tmrVal          2   16[BANK0 ] unsigned int 
 Return value:  Size  Location     Type
                  1    wreg      void 
 Registers used:
		wreg, status,2, status,0, cstack
 Tracked objects:
		On entry : 
		On exit  : 
		Unchanged: 
 Data sizes:     COMRAM   BANK0   BANK1   BANK2   BANK3   BANK4   BANK5   BANK6   BANK7   BANK8   BANK9  BANK10  BANK11  BANK12  BANK13  BANK14  BANK15
      Params:         0       4       0       0       0       0       0       0       0       0       0       0       0       0       0       0       0
      Locals:         0       4       0       0       0       0       0       0       0       0       0       0       0       0       0       0       0
      Temps:          0       2       0       0       0       0       0       0       0       0       0       0       0       0       0       0       0
      Totals:         0      10       0       0       0       0       0       0       0       0       0       0       0       0       0       0       0
Total ram usage:       10 bytes
 Hardware stack levels used:    1
 Hardware stack levels required when called:    9
 This function calls:
		_TMR_SwapTimer
 This function is called by:
		_SwTimerStart
 This function uses a non-reentrant model


 *************** function _TMR_SwapTimer *****************
 Defined at:
		line 112 in file "mcc_generated_files/LoRaWAN/sw_timer.c"
 Parameters:    Size  Location     Type
  timerVal        2    8[BANK0 ] unsigned int 
 Auto vars:     Size  Location     Type
		None
 Return value:  Size  Location     Type
                  2    8[BANK0 ] unsigned int 
 Registers used:
		wreg, status,2, status,0, cstack
 Tracked objects:
		On entry : 
		On exit  : 
		Unchanged: 
 Data sizes:     COMRAM   BANK0   BANK1   BANK2   BANK3   BANK4   BANK5   BANK6   BANK7   BANK8   BANK9  BANK10  BANK11  BANK12  BANK13  BANK14  BANK15
      Params:         0       2       0       0       0       0       0       0       0       0       0       0       0       0       0       0       0
      Locals:         0       0       0       0       0       0       0       0       0       0       0       0       0       0       0       0       0
      Temps:          0       0       0       0       0       0       0       0       0       0       0       0       0       0       0       0       0
      Totals:         0       2       0       0       0       0       0       0       0       0       0       0       0       0       0       0       0
Total ram usage:        2 bytes
 Hardware stack levels used:    1
 Hardware stack levels required when called:    8
 This function calls:
		_TMR1_ReadTimer
		_TMR1_WriteTimer
 This function is called by:
		_TMR_OverrideRemaining
 This function uses a non-reentrant model


 *************** function _TMR1_WriteTimer *****************
 Defined at:
		line 121 in file "mcc_generated_files/tmr1.c"
 Parameters:    Size  Location     Type
  timerVal        2    0[BANK0 ] unsigned int 
 Auto vars:     Size  Location     Type
		None
 Return value:  Size  Location     Type
                  1    wreg      void 
 Registers used:
		wreg, status,2
 Tracked objects:
		On entry : 
		On exit  : 
		Unchanged: 
 Data sizes:     COMRAM   BANK0   BANK1   BANK2   BANK3   BANK4   BANK5   BANK6   BANK7   BANK8   BANK9  BANK10  BANK11  BANK12  BANK13  BANK14  BANK15
      Params:         0       2       0       0       0       0       0       0       0       0       0       0       0       0       0       0       0
      Locals:         0       0       0       0       0       0       0       0       0       0       0       0       0       0       0       0       0
      Temps:          0       0       0       0       0       0       0       0       0       0       0       0       0       0       0       0       0
      Totals:         0       2       0       0       0       0       0       0       0       0       0       0       0       0       0       0       0
Total ram usage:        2 bytes
 Hardware stack levels used:    1
 Hardware stack levels required when called:    7
 This function calls:
		Nothing
 This function is called by:
		_TMR_SwapTimer
		_TMR1_Reload
 This function uses a non-reentrant model


 *************** function _SwTimersInterrupt *****************
 Defined at:
		line 287 in file "mcc_generated_files/LoRaWAN/sw_timer.c"
 Parameters:    Size  Location     Type
		None
 Auto vars:     Size  Location     Type
  ticksToNextT    4   44[BANK0 ] unsigned long 
  timeElapsed     4   40[BANK0 ] unsigned long 
  i               1   48[BANK0 ] unsigned char 
 Return value:  Size  Location     Type
                  4   32[BANK0 ] unsigned long 
 Registers used:
		wreg, fsr2l, fsr2h, status,2, status,0, prodl, prodh, cstack
 Tracked objects:
		On entry : 
		On exit  : 
		Unchanged: 
 Data sizes:     COMRAM   BANK0   BANK1   BANK2   BANK3   BANK4   BANK5   BANK6   BANK7   BANK8   BANK9  BANK10  BANK11  BANK12  BANK13  BANK14  BANK15
      Params:         0       4       0       0       0       0       0       0       0       0       0       0       0       0       0       0       0
      Locals:         0       9       0       0       0       0       0       0       0       0       0       0       0       0       0       0       0
      Temps:          0       4       0       0       0       0       0       0       0       0       0       0       0       0       0       0       0
      Totals:         0      17       0       0       0       0       0       0       0       0       0       0       0       0       0       0       0
Total ram usage:       17 bytes
 Hardware stack levels used:    1
 Hardware stack levels required when called:    9
 This function calls:
		_TMR_GetDeltaTime
 This function is called by:
		_SwTimerReadValue
		_SwTimerStart
		_SwTimersCanSleep
 This function uses a non-reentrant model


 *************** function _TMR_GetDeltaTime *****************
 Defined at:
		line 88 in file "mcc_generated_files/LoRaWAN/sw_timer.c"
 Parameters:    Size  Location     Type
		None
 Auto vars:     Size  Location     Type
		None
 Return value:  Size  Location     Type
                  4    8[BANK0 ] unsigned long 
 Registers used:
		wreg, status,2, status,0, cstack
 Tracked objects:
		On entry : 
		On exit  : 
		Unchanged: 
 Data sizes:     COMRAM   BANK0   BANK1   BANK2   BANK3   BANK4   BANK5   BANK6   BANK7   BANK8   BANK9  BANK10  BANK11  BANK12  BANK13  BANK14  BANK15
      Params:         0       4       0       0       0       0       0       0       0       0       0       0       0       0       0       0       0
      Locals:         0       0       0       0       0       0       0       0       0       0       0       0       0       0       0       0       0
      Temps:          0      20       0       0       0       0       0       0       0       0       0       0       0       0       0       0       0
      Totals:         0      24       0       0       0       0       0       0       0       0       0       0       0       0       0       0       0
Total ram usage:       24 bytes
 Hardware stack levels used:    1
 Hardware stack levels required when called:    8
 This function calls:
		_TMR1_ReadTimer
 This function is called by:
		_SwTimersInterrupt
 This function uses a non-reentrant model


 *************** function _TMR1_ReadTimer *****************
 Defined at:
		line 105 in file "mcc_generated_files/tmr1.c"
 Parameters:    Size  Location     Type
		None
 Auto vars:     Size  Location     Type
  readVal         2    4[BANK0 ] unsigned int 
  readValLow      1    7[BANK0 ] unsigned char 
  readValHigh     1    6[BANK0 ] unsigned char 
 Return value:  Size  Location     Type
                  2    0[BANK0 ] unsigned int 
 Registers used:
		wreg, status,2
 Tracked objects:
		On entry : 
		On exit  : 
		Unchanged: 
 Data sizes:     COMRAM   BANK0   BANK1   BANK2   BANK3   BANK4   BANK5   BANK6   BANK7   BANK8   BANK9  BANK10  BANK11  BANK12  BANK13  BANK14  BANK15
      Params:         0       2       0       0       0       0       0       0       0       0       0       0       0       0       0       0       0
      Locals:         0       4       0       0       0       0       0       0       0       0       0       0       0       0       0       0       0
      Temps:          0       2       0       0       0       0       0       0       0       0       0       0       0       0       0       0       0
      Totals:         0       8       0       0       0       0       0       0       0       0       0       0       0       0       0       0       0
Total ram usage:        8 bytes
 Hardware stack levels used:    1
 Hardware stack levels required when called:    7
 This function calls:
		Nothing
 This function is called by:
		_TMR_GetDeltaTime
		_TMR_SwapTimer
 This function uses a non-reentrant model


 *************** function _SwTimerSetTimeout *****************
 Defined at:
		line 186 in file "mcc_generated_files/LoRaWAN/sw_timer.c"
 Parameters:    Size  Location     Type
  timerId         1    wreg     unsigned char 
  timeout         4   13[BANK0 ] unsigned long 
 Auto vars:     Size  Location     Type
  timerId         1   21[BANK0 ] unsigned char 
 Return value:  Size  Location     Type
                  1    wreg      void 
 Registers used:
		wreg, fsr2l, fsr2h, status,2, status,0, prodl, prodh
 Tracked objects:
		On entry : 
		On exit  : 
		Unchanged: 
 Data sizes:     COMRAM   BANK0   BANK1   BANK2   BANK3   BANK4   BANK5   BANK6   BANK7   BANK8   BANK9  BANK10  BANK11  BANK12  BANK13  BANK14  BANK15
      Params:         0       4       0       0       0       0       0       0       0       0       0       0       0       0       0       0       0
      Locals:         0       1       0       0       0       0       0       0       0       0       0       0       0       0       0       0       0
      Temps:          0       4       0       0       0       0       0       0       0       0       0       0       0       0       0       0       0
      Totals:         0       9       0       0       0       0       0       0       0       0       0       0       0       0       0       0       0
Total ram usage:        9 bytes
 Hardware stack levels used:    1
 Hardware stack levels required when called:    7
 This function calls:
		Nothing
 This function is called by:
		_RADIO_Transmit
		_RADIO_ReceiveStart
		_LORAWAN_TxDone
		_LORAWAN_RxTimeout
		_StartReTxTimer
		_DutyCycleCallback
		_LORAWAN_Join
		_LORAWAN_LinkCheckConfigure
		_LORAWAN_LinkCheckCallback
		_UpdateRetransmissionAckTimeoutState
		_UpdateJoinSuccessState
 This function uses a non-reentrant model


 *************** function _InitDefault868Channels *****************
 Defined at:
		line 979 in file "mcc_generated_files/LoRaWAN/lorawan_eu.c"
 Parameters:    Size  Location     Type
		None
 Auto vars:     Size  Location     Type
  i               1   11[BANK0 ] unsigned char 
 Return value:  Size  Location     Type
                  1    wreg      void 
 Registers used:
		wreg, fsr0l, fsr0h, fsr2l, fsr2h, status,2, status,0, tblptrl, tblptrh, tblptru, prodl, prodh, cstack
 Tracked objects:
		On entry : 
		On exit  : 
		Unchanged: 
 Data sizes:     COMRAM   BANK0   BANK1   BANK2   BANK3   BANK4   BANK5   BANK6   BANK7   BANK8   BANK9  BANK10  BANK11  BANK12  BANK13  BANK14  BANK15
      Params:         0       0       0       0       0       0       0       0       0       0       0       0       0       0       0       0       0
      Locals:         0       1       0       0       0       0       0       0       0       0       0       0       0       0       0       0       0
      Temps:          0       0       0       0       0       0       0       0       0       0       0       0       0       0       0       0       0
      Totals:         0       1       0       0       0       0       0       0       0       0       0       0       0       0       0       0       0
Total ram usage:        1 bytes
 Hardware stack levels used:    1
 Hardware stack levels required when called:    8
 This function calls:
		_memcpy
		_memset
 This function is called by:
		_LORAWAN_Reset
 This function uses a non-reentrant model


 *************** function _InitDefault433Channels *****************
 Defined at:
		line 994 in file "mcc_generated_files/LoRaWAN/lorawan_eu.c"
 Parameters:    Size  Location     Type
		None
 Auto vars:     Size  Location     Type
  i               1   11[BANK0 ] unsigned char 
 Return value:  Size  Location     Type
                  1    wreg      void 
 Registers used:
		wreg, fsr0l, fsr0h, fsr2l, fsr2h, status,2, status,0, tblptrl, tblptrh, tblptru, prodl, prodh, cstack
 Tracked objects:
		On entry : 
		On exit  : 
		Unchanged: 
 Data sizes:     COMRAM   BANK0   BANK1   BANK2   BANK3   BANK4   BANK5   BANK6   BANK7   BANK8   BANK9  BANK10  BANK11  BANK12  BANK13  BANK14  BANK15
      Params:         0       0       0       0       0       0       0       0       0       0       0       0       0       0       0       0       0
      Locals:         0       1       0       0       0       0       0       0       0       0       0       0       0       0       0       0       0
      Temps:          0       0       0       0       0       0       0       0       0       0       0       0       0       0       0       0       0
      Totals:         0       1       0       0       0       0       0       0       0       0       0       0       0       0       0       0       0
Total ram usage:        1 bytes
 Hardware stack levels used:    1
 Hardware stack levels required when called:    8
 This function calls:
		_memcpy
		_memset
 This function is called by:
		_LORAWAN_Reset
 This function uses a non-reentrant model


 *************** function _memset *****************
 Defined at:
		line 8 in file "C:\Program Files (x86)\Microchip\xc8\v1.45\sources\common\memset.c"
 Parameters:    Size  Location     Type
  p1              2    0[BANK0 ] PTR void 
		 -> AssemblePacket@mhdr(1), aesBuffer(16), macBuffer(271), Channels(224), 
		 -> loRa.activationParameters(105), loRa(245), GenerateSubkey@l(16), AESCmac@x(16), 
  c               2    2[BANK0 ] int 
  n               2    4[BANK0 ] unsigned int 
 Auto vars:     Size  Location     Type
  p               2    6[BANK0 ] PTR unsigned char 
		 -> AssemblePacket@mhdr(1), aesBuffer(16), macBuffer(271), Channels(224), 
		 -> loRa.activationParameters(105), loRa(245), GenerateSubkey@l(16), AESCmac@x(16), 
 Return value:  Size  Location     Type
                  2    0[BANK0 ] PTR void 
 Registers used:
		wreg, fsr2l, fsr2h, status,2, status,0
 Tracked objects:
		On entry : 
		On exit  : 
		Unchanged: 
 Data sizes:     COMRAM   BANK0   BANK1   BANK2   BANK3   BANK4   BANK5   BANK6   BANK7   BANK8   BANK9  BANK10  BANK11  BANK12  BANK13  BANK14  BANK15
      Params:         0       6       0       0       0       0       0       0       0       0       0       0       0       0       0       0       0
      Locals:         0       2       0       0       0       0       0       0       0       0       0       0       0       0       0       0       0
      Temps:          0       0       0       0       0       0       0       0       0       0       0       0       0       0       0       0       0
      Totals:         0       8       0       0       0       0       0       0       0       0       0       0       0       0       0       0       0
Total ram usage:        8 bytes
 Hardware stack levels used:    1
 Hardware stack levels required when called:    7
 This function calls:
		Nothing
 This function is called by:
		_AESCmac
		_GenerateSubkey
		_LORAWAN_Reset
		_InitDefault868Channels
		_InitDefault433Channels
		_AssemblePacket
		_PrepareJoinRequestFrame
		_PrepareSessionKeys
		_AssembleEncryptionBlock
 This function uses a non-reentrant model


 *************** function _memcpy *****************
 Defined at:
		line 27 in file "C:\Program Files (x86)\Microchip\xc8\v1.45\sources\common\memcpy.c"
 Parameters:    Size  Location     Type
  d1              2    0[BANK0 ] PTR void 
		 -> ComputeMic@mic(4), ExtractMic@mic(4), aesBuffer(16), LORAWAN_RxDone@computedMic(4), 
		 -> loRa.activationParameters.applicationEui(8), loRa.activationParameters.deviceEui(8), AESEncodeLoRa@useKey(16), UpdateCfList@frequency(4), 
		 -> macBuffer(271), Channels(224), loRa.activationParameters(105), radioBuffer(271), 
		 -> loRa(245), RadioConfiguration(54), AESCmac@x(16), 
  s1              2    2[BANK0 ] PTR const void 
		 -> radioBuffer.cfList(16), LORAWAN_RxDone@hdr.cfList(16), STR_3(6), appSKey(16), 
		 -> nwkSKey(16), AssembleEncryptionBlock@frameCounter(4), ComputeSessionKeys@joinAcceptBuffer(2), PrepareJoinRequestFrame@mic(4), 
		 -> loRa.fCntUp.valueLow(2), aesBuffer(16), LORAWAN_RxDone@hdr(2), loRa.activationParameters.applicationKey(16), 
		 -> loRa.activationParameters.applicationSessionKey(16), loRa.activationParameters.networkSessionKey(16), loRa.activationParameters.deviceAddress(4), loRa.activationParameters.applicationEui(8), 
		 -> loRa.activationParameters.deviceEui(8), loRa.activationParameters.mcastApplicationSessionKey(16), loRa.activationParameters.mcastNetworkSessionKey(16), loRa.activationParameters.mcastDeviceAddress(4), 
		 -> FskSyncWordBuff(3), UpdateCfList@joinAccept(2), loRa.activationParameters(105), loRa.devNonce(2), 
		 -> loRa.fCntUp(4), radioBuffer(271), loRa(245), DefaultChannels433(42), 
		 -> DefaultChannels868(42), RadioConfiguration.syncWord(8), RadioConfiguration(54), AESCmac@y(16), 
		 -> NULL(0), 
  n               2    4[BANK0 ] unsigned int 
 Auto vars:     Size  Location     Type
  s               2    9[BANK0 ] PTR const unsigned char 
		 -> radioBuffer.cfList(16), LORAWAN_RxDone@hdr.cfList(16), STR_3(6), appSKey(16), 
		 -> nwkSKey(16), AssembleEncryptionBlock@frameCounter(4), ComputeSessionKeys@joinAcceptBuffer(2), PrepareJoinRequestFrame@mic(4), 
		 -> loRa.fCntUp.valueLow(2), aesBuffer(16), LORAWAN_RxDone@hdr(2), loRa.activationParameters.applicationKey(16), 
		 -> loRa.activationParameters.applicationSessionKey(16), loRa.activationParameters.networkSessionKey(16), loRa.activationParameters.deviceAddress(4), loRa.activationParameters.applicationEui(8), 
		 -> loRa.activationParameters.deviceEui(8), loRa.activationParameters.mcastApplicationSessionKey(16), loRa.activationParameters.mcastNetworkSessionKey(16), loRa.activationParameters.mcastDeviceAddress(4), 
		 -> FskSyncWordBuff(3), UpdateCfList@joinAccept(2), loRa.activationParameters(105), loRa.devNonce(2), 
		 -> loRa.fCntUp(4), radioBuffer(271), loRa(245), DefaultChannels433(42), 
		 -> DefaultChannels868(42), RadioConfiguration.syncWord(8), RadioConfiguration(54), AESCmac@y(16), 
		 -> NULL(0), 
  d               2    7[BANK0 ] PTR unsigned char 
		 -> ComputeMic@mic(4), ExtractMic@mic(4), aesBuffer(16), LORAWAN_RxDone@computedMic(4), 
		 -> loRa.activationParameters.applicationEui(8), loRa.activationParameters.deviceEui(8), AESEncodeLoRa@useKey(16), UpdateCfList@frequency(4), 
		 -> macBuffer(271), Channels(224), loRa.activationParameters(105), radioBuffer(271), 
		 -> loRa(245), RadioConfiguration(54), AESCmac@x(16), 
  tmp             1    6[BANK0 ] unsigned char 
 Return value:  Size  Location     Type
                  2    0[BANK0 ] PTR void 
 Registers used:
		wreg, fsr0l, fsr0h, fsr2l, fsr2h, status,2, status,0, tblptrl, tblptrh, tblptru
 Tracked objects:
		On entry : 
		On exit  : 
		Unchanged: 
 Data sizes:     COMRAM   BANK0   BANK1   BANK2   BANK3   BANK4   BANK5   BANK6   BANK7   BANK8   BANK9  BANK10  BANK11  BANK12  BANK13  BANK14  BANK15
      Params:         0       6       0       0       0       0       0       0       0       0       0       0       0       0       0       0       0
      Locals:         0       5       0       0       0       0       0       0       0       0       0       0       0       0       0       0       0
      Temps:          0       0       0       0       0       0       0       0       0       0       0       0       0       0       0       0       0
      Totals:         0      11       0       0       0       0       0       0       0       0       0       0       0       0       0       0       0
Total ram usage:       11 bytes
 Hardware stack levels used:    1
 Hardware stack levels required when called:    7
 This function calls:
		Nothing
 This function is called by:
		_AESCmac
		_RADIO_SetFSKSyncWord
		_UpdateCfList
		_InitDefault868Channels
		_InitDefault433Channels
		_AESEncodeLoRa
		_LORAWAN_SetNetworkSessionKey
		_LORAWAN_SetApplicationSessionKey
		_LORAWAN_RxDone
		_AssemblePacket
		_PrepareJoinRequestFrame
		_PrepareSessionKeys
		_AssembleEncryptionBlock
		_ExtractMic
		_ComputeMic
		_RADIO_GetData
		_RADIO_GetFSKSyncWord
		_LORAWAN_SetMcastNetworkSessionKey
		_LORAWAN_SetMcastApplicationSessionKey
		_LORAWAN_GetMcastApplicationSessionKey
		_LORAWAN_GetMcastNetworkSessionKey
		_LORAWAN_SetDeviceEui
		_LORAWAN_GetDeviceEui
		_LORAWAN_SetApplicationEui
		_LORAWAN_GetApplicationEui
		_LORAWAN_GetNetworkSessionKey
		_LORAWAN_GetApplicationSessionKey
		_LORAWAN_SetApplicationKey
		_LORAWAN_GetApplicationKey
 This function uses a non-reentrant model


 *************** function _CreateAllSoftwareTimers *****************
 Defined at:
		line 937 in file "mcc_generated_files/LoRaWAN/lorawan_eu.c"
 Parameters:    Size  Location     Type
		None
 Auto vars:     Size  Location     Type
		None
 Return value:  Size  Location     Type
                  1    wreg      void 
 Registers used:
		wreg, fsr2l, fsr2h, status,2, status,0, prodl, prodh, cstack
 Tracked objects:
		On entry : 
		On exit  : 
		Unchanged: 
 Data sizes:     COMRAM   BANK0   BANK1   BANK2   BANK3   BANK4   BANK5   BANK6   BANK7   BANK8   BANK9  BANK10  BANK11  BANK12  BANK13  BANK14  BANK15
      Params:         0       0       0       0       0       0       0       0       0       0       0       0       0       0       0       0       0
      Locals:         0       0       0       0       0       0       0       0       0       0       0       0       0       0       0       0       0
      Temps:          0       0       0       0       0       0       0       0       0       0       0       0       0       0       0       0       0
      Totals:         0       0       0       0       0       0       0       0       0       0       0       0       0       0       0       0       0
Total ram usage:        0 bytes
 Hardware stack levels used:    1
 Hardware stack levels required when called:    8
 This function calls:
		_SwTimerCreate
 This function is called by:
		_LORAWAN_Init
 This function uses a non-reentrant model


 *************** function _SwTimerCreate *****************
 Defined at:
		line 154 in file "mcc_generated_files/LoRaWAN/sw_timer.c"
 Parameters:    Size  Location     Type
		None
 Auto vars:     Size  Location     Type
  retVal          1    0[BANK0 ] unsigned char 
 Return value:  Size  Location     Type
                  1    wreg      unsigned char 
 Registers used:
		wreg, fsr2l, fsr2h, status,2, status,0, prodl, prodh
 Tracked objects:
		On entry : 
		On exit  : 
		Unchanged: 
 Data sizes:     COMRAM   BANK0   BANK1   BANK2   BANK3   BANK4   BANK5   BANK6   BANK7   BANK8   BANK9  BANK10  BANK11  BANK12  BANK13  BANK14  BANK15
      Params:         0       0       0       0       0       0       0       0       0       0       0       0       0       0       0       0       0
      Locals:         0       1       0       0       0       0       0       0       0       0       0       0       0       0       0       0       0
      Temps:          0       0       0       0       0       0       0       0       0       0       0       0       0       0       0       0       0
      Totals:         0       1       0       0       0       0       0       0       0       0       0       0       0       0       0       0       0
Total ram usage:        1 bytes
 Hardware stack levels used:    1
 Hardware stack levels required when called:    7
 This function calls:
		Nothing
 This function is called by:
		_RADIO_Init
		_CreateAllSoftwareTimers
 This function uses a non-reentrant model


 *************** function _INTERRUPT_InterruptManager *****************
 Defined at:
		line 58 in file "mcc_generated_files/interrupt_manager.c"
 Parameters:    Size  Location     Type
		None
 Auto vars:     Size  Location     Type
		None
 Return value:  Size  Location     Type
                  1    wreg      void 
 Registers used:
		wreg, fsr2l, fsr2h, status,2, status,0, pclath, tosl, prodl, prodh, cstack
 Tracked objects:
		On entry : 
		On exit  : 
		Unchanged: 
 Data sizes:     COMRAM   BANK0   BANK1   BANK2   BANK3   BANK4   BANK5   BANK6   BANK7   BANK8   BANK9  BANK10  BANK11  BANK12  BANK13  BANK14  BANK15
      Params:         0       0       0       0       0       0       0       0       0       0       0       0       0       0       0       0       0
      Locals:         0       0       0       0       0       0       0       0       0       0       0       0       0       0       0       0       0
      Temps:          8       0       0       0       0       0       0       0       0       0       0       0       0       0       0       0       0
      Totals:         8       0       0       0       0       0       0       0       0       0       0       0       0       0       0       0       0
Total ram usage:        8 bytes
 Hardware stack levels used:    1
 Hardware stack levels required when called:    6
 This function calls:
		_INT1_ISR
		_INT2_ISR
		_PIN_MANAGER_IOC
		_TMR1_ISR
 This function is called by:
		Interrupt level 2
 This function uses a non-reentrant model


 *************** function _TMR1_ISR *****************
 Defined at:
		line 158 in file "mcc_generated_files/tmr1.c"
 Parameters:    Size  Location     Type
		None
 Auto vars:     Size  Location     Type
		None
 Return value:  Size  Location     Type
                  1    wreg      void 
 Registers used:
		wreg, fsr2l, fsr2h, status,2, status,0, pclath, tosl, prodl, prodh, cstack
 Tracked objects:
		On entry : 
		On exit  : 
		Unchanged: 
 Data sizes:     COMRAM   BANK0   BANK1   BANK2   BANK3   BANK4   BANK5   BANK6   BANK7   BANK8   BANK9  BANK10  BANK11  BANK12  BANK13  BANK14  BANK15
      Params:         0       0       0       0       0       0       0       0       0       0       0       0       0       0       0       0       0
      Locals:         0       0       0       0       0       0       0       0       0       0       0       0       0       0       0       0       0
      Temps:          0       0       0       0       0       0       0       0       0       0       0       0       0       0       0       0       0
      Totals:         0       0       0       0       0       0       0       0       0       0       0       0       0       0       0       0       0
Total ram usage:        0 bytes
 Hardware stack levels used:    1
 Hardware stack levels required when called:    5
 This function calls:
		_TMR1_CallBack
		i2_TMR1_WriteTimer
 This function is called by:
		_INTERRUPT_InterruptManager
 This function uses a non-reentrant model


 *************** function _TMR1_CallBack *****************
 Defined at:
		line 170 in file "mcc_generated_files/tmr1.c"
 Parameters:    Size  Location     Type
		None
 Auto vars:     Size  Location     Type
		None
 Return value:  Size  Location     Type
                  1    wreg      void 
 Registers used:
		wreg, fsr2l, fsr2h, status,2, status,0, pclath, tosl, prodl, prodh, cstack
 Tracked objects:
		On entry : 
		On exit  : 
		Unchanged: 
 Data sizes:     COMRAM   BANK0   BANK1   BANK2   BANK3   BANK4   BANK5   BANK6   BANK7   BANK8   BANK9  BANK10  BANK11  BANK12  BANK13  BANK14  BANK15
      Params:         0       0       0       0       0       0       0       0       0       0       0       0       0       0       0       0       0
      Locals:         0       0       0       0       0       0       0       0       0       0       0       0       0       0       0       0       0
      Temps:          0       0       0       0       0       0       0       0       0       0       0       0       0       0       0       0       0
      Totals:         0       0       0       0       0       0       0       0       0       0       0       0       0       0       0       0       0
Total ram usage:        0 bytes
 Hardware stack levels used:    1
 Hardware stack levels required when called:    4
 This function calls:
		Absolute function
		_TMR1_DefaultInterruptHandler
		_TMR_ISR_lora
 This function is called by:
		_TMR1_ISR
 This function uses a non-reentrant model


 *************** function _TMR1_DefaultInterruptHandler *****************
 Defined at:
		line 183 in file "mcc_generated_files/tmr1.c"
 Parameters:    Size  Location     Type
		None
 Auto vars:     Size  Location     Type
		None
 Return value:  Size  Location     Type
                  1    wreg      void 
 Registers used:
		None
 Tracked objects:
		On entry : 
		On exit  : 
		Unchanged: 
 Data sizes:     COMRAM   BANK0   BANK1   BANK2   BANK3   BANK4   BANK5   BANK6   BANK7   BANK8   BANK9  BANK10  BANK11  BANK12  BANK13  BANK14  BANK15
      Params:         0       0       0       0       0       0       0       0       0       0       0       0       0       0       0       0       0
      Locals:         0       0       0       0       0       0       0       0       0       0       0       0       0       0       0       0       0
      Temps:          0       0       0       0       0       0       0       0       0       0       0       0       0       0       0       0       0
      Totals:         0       0       0       0       0       0       0       0       0       0       0       0       0       0       0       0       0
Total ram usage:        0 bytes
 Hardware stack levels used:    1
 This function calls:
		Nothing
 This function is called by:
		_TMR1_Initialize
		_TMR1_CallBack
 This function uses a non-reentrant model


 *************** function _TMR_ISR_lora *****************
 Defined at:
		line 59 in file "mcc_generated_files/LoRaWAN/tmr_lora_addons.c"
 Parameters:    Size  Location     Type
		None
 Auto vars:     Size  Location     Type
		None
 Return value:  Size  Location     Type
                  1    wreg      void 
 Registers used:
		wreg, fsr2l, fsr2h, status,2, status,0, prodl, prodh, cstack
 Tracked objects:
		On entry : 
		On exit  : 
		Unchanged: 
 Data sizes:     COMRAM   BANK0   BANK1   BANK2   BANK3   BANK4   BANK5   BANK6   BANK7   BANK8   BANK9  BANK10  BANK11  BANK12  BANK13  BANK14  BANK15
      Params:         0       0       0       0       0       0       0       0       0       0       0       0       0       0       0       0       0
      Locals:         0       0       0       0       0       0       0       0       0       0       0       0       0       0       0       0       0
      Temps:          2       0       0       0       0       0       0       0       0       0       0       0       0       0       0       0       0
      Totals:         2       0       0       0       0       0       0       0       0       0       0       0       0       0       0       0       0
Total ram usage:        2 bytes
 Hardware stack levels used:    1
 Hardware stack levels required when called:    3
 This function calls:
		i2_SwTimersInterrupt
		i2_TMR_SwapTimer
 This function is called by:
		_TMR_ISR_Lora_Init
		_TMR1_CallBack
 This function uses a non-reentrant model


 *************** function i2_TMR_SwapTimer *****************
 Defined at:
		line 112 in file "mcc_generated_files/LoRaWAN/sw_timer.c"
 Parameters:    Size  Location     Type
  timerVal        2    8[COMRAM] unsigned int 
 Auto vars:     Size  Location     Type
		None
 Return value:  Size  Location     Type
                  2    8[COMRAM] unsigned int 
 Registers used:
		wreg, status,2, status,0, cstack
 Tracked objects:
		On entry : 
		On exit  : 
		Unchanged: 
 Data sizes:     COMRAM   BANK0   BANK1   BANK2   BANK3   BANK4   BANK5   BANK6   BANK7   BANK8   BANK9  BANK10  BANK11  BANK12  BANK13  BANK14  BANK15
      Params:         2       0       0       0       0       0       0       0       0       0       0       0       0       0       0       0       0
      Locals:         0       0       0       0       0       0       0       0       0       0       0       0       0       0       0       0       0
      Temps:          0       0       0       0       0       0       0       0       0       0       0       0       0       0       0       0       0
      Totals:         2       0       0       0       0       0       0       0       0       0       0       0       0       0       0       0       0
Total ram usage:        2 bytes
 Hardware stack levels used:    1
 Hardware stack levels required when called:    1
 This function calls:
		i2_TMR1_ReadTimer
		i2_TMR1_WriteTimer
 This function is called by:
		_TMR_ISR_lora
 This function uses a non-reentrant model


 *************** function i2_TMR1_WriteTimer *****************
 Defined at:
		line 121 in file "mcc_generated_files/tmr1.c"
 Parameters:    Size  Location     Type
  timerVal        2    0[COMRAM] unsigned int 
 Auto vars:     Size  Location     Type
		None
 Return value:  Size  Location     Type
                  1    wreg      void 
 Registers used:
		wreg, status,2
 Tracked objects:
		On entry : 
		On exit  : 
		Unchanged: 
 Data sizes:     COMRAM   BANK0   BANK1   BANK2   BANK3   BANK4   BANK5   BANK6   BANK7   BANK8   BANK9  BANK10  BANK11  BANK12  BANK13  BANK14  BANK15
      Params:         2       0       0       0       0       0       0       0       0       0       0       0       0       0       0       0       0
      Locals:         0       0       0       0       0       0       0       0       0       0       0       0       0       0       0       0       0
      Temps:          0       0       0       0       0       0       0       0       0       0       0       0       0       0       0       0       0
      Totals:         2       0       0       0       0       0       0       0       0       0       0       0       0       0       0       0       0
Total ram usage:        2 bytes
 Hardware stack levels used:    1
 This function calls:
		Nothing
 This function is called by:
		_TMR1_ISR
		i2_TMR_SwapTimer
 This function uses a non-reentrant model


 *************** function i2_SwTimersInterrupt *****************
 Defined at:
		line 287 in file "mcc_generated_files/LoRaWAN/sw_timer.c"
 Parameters:    Size  Location     Type
		None
 Auto vars:     Size  Location     Type
  SwTimersInte    4   44[COMRAM] unsigned long 
  SwTimersInte    4   40[COMRAM] unsigned long 
  SwTimersInte    1   48[COMRAM] unsigned char 
 Return value:  Size  Location     Type
                  4   32[COMRAM] unsigned long 
 Registers used:
		wreg, fsr2l, fsr2h, status,2, status,0, prodl, prodh, cstack
 Tracked objects:
		On entry : 
		On exit  : 
		Unchanged: 
 Data sizes:     COMRAM   BANK0   BANK1   BANK2   BANK3   BANK4   BANK5   BANK6   BANK7   BANK8   BANK9  BANK10  BANK11  BANK12  BANK13  BANK14  BANK15
      Params:         4       0       0       0       0       0       0       0       0       0       0       0       0       0       0       0       0
      Locals:         9       0       0       0       0       0       0       0       0       0       0       0       0       0       0       0       0
      Temps:          4       0       0       0       0       0       0       0       0       0       0       0       0       0       0       0       0
      Totals:        17       0       0       0       0       0       0       0       0       0       0       0       0       0       0       0       0
Total ram usage:       17 bytes
 Hardware stack levels used:    1
 Hardware stack levels required when called:    2
 This function calls:
		i2_TMR_GetDeltaTime
 This function is called by:
		_TMR_ISR_lora
 This function uses a non-reentrant model


 *************** function i2_TMR_GetDeltaTime *****************
 Defined at:
		line 88 in file "mcc_generated_files/LoRaWAN/sw_timer.c"
 Parameters:    Size  Location     Type
		None
 Auto vars:     Size  Location     Type
		None
 Return value:  Size  Location     Type
                  4    8[COMRAM] unsigned long 
 Registers used:
		wreg, status,2, status,0, cstack
 Tracked objects:
		On entry : 
		On exit  : 
		Unchanged: 
 Data sizes:     COMRAM   BANK0   BANK1   BANK2   BANK3   BANK4   BANK5   BANK6   BANK7   BANK8   BANK9  BANK10  BANK11  BANK12  BANK13  BANK14  BANK15
      Params:         4       0       0       0       0       0       0       0       0       0       0       0       0       0       0       0       0
      Locals:         0       0       0       0       0       0       0       0       0       0       0       0       0       0       0       0       0
      Temps:         20       0       0       0       0       0       0       0       0       0       0       0       0       0       0       0       0
      Totals:        24       0       0       0       0       0       0       0       0       0       0       0       0       0       0       0       0
Total ram usage:       24 bytes
 Hardware stack levels used:    1
 Hardware stack levels required when called:    1
 This function calls:
		i2_TMR1_ReadTimer
 This function is called by:
		i2_SwTimersInterrupt
 This function uses a non-reentrant model


 *************** function i2_TMR1_ReadTimer *****************
 Defined at:
		line 105 in file "mcc_generated_files/tmr1.c"
 Parameters:    Size  Location     Type
		None
 Auto vars:     Size  Location     Type
  TMR1_ReadTim    2    4[COMRAM] unsigned int 
  TMR1_ReadTim    1    7[COMRAM] unsigned char 
  TMR1_ReadTim    1    6[COMRAM] unsigned char 
 Return value:  Size  Location     Type
                  2    0[COMRAM] unsigned int 
 Registers used:
		wreg, status,2
 Tracked objects:
		On entry : 
		On exit  : 
		Unchanged: 
 Data sizes:     COMRAM   BANK0   BANK1   BANK2   BANK3   BANK4   BANK5   BANK6   BANK7   BANK8   BANK9  BANK10  BANK11  BANK12  BANK13  BANK14  BANK15
      Params:         2       0       0       0       0       0       0       0       0       0       0       0       0       0       0       0       0
      Locals:         4       0       0       0       0       0       0       0       0       0       0       0       0       0       0       0       0
      Temps:          2       0       0       0       0       0       0       0       0       0       0       0       0       0       0       0       0
      Totals:         8       0       0       0       0       0       0       0       0       0       0       0       0       0       0       0       0
Total ram usage:        8 bytes
 Hardware stack levels used:    1
 This function calls:
		Nothing
 This function is called by:
		i2_TMR_GetDeltaTime
		i2_TMR_SwapTimer
 This function uses a non-reentrant model


 *************** function _PIN_MANAGER_IOC *****************
 Defined at:
		line 110 in file "mcc_generated_files/pin_manager.c"
 Parameters:    Size  Location     Type
		None
 Auto vars:     Size  Location     Type
		None
 Return value:  Size  Location     Type
                  1    wreg      void 
 Registers used:
		wreg, status,2, status,0, pclath, tosl, cstack
 Tracked objects:
		On entry : 
		On exit  : 
		Unchanged: 
 Data sizes:     COMRAM   BANK0   BANK1   BANK2   BANK3   BANK4   BANK5   BANK6   BANK7   BANK8   BANK9  BANK10  BANK11  BANK12  BANK13  BANK14  BANK15
      Params:         0       0       0       0       0       0       0       0       0       0       0       0       0       0       0       0       0
      Locals:         0       0       0       0       0       0       0       0       0       0       0       0       0       0       0       0       0
      Temps:          0       0       0       0       0       0       0       0       0       0       0       0       0       0       0       0       0
      Totals:         0       0       0       0       0       0       0       0       0       0       0       0       0       0       0       0       0
Total ram usage:        0 bytes
 Hardware stack levels used:    1
 Hardware stack levels required when called:    2
 This function calls:
		_IOCB4_ISR
 This function is called by:
		_INTERRUPT_InterruptManager
 This function uses a non-reentrant model


 *************** function _IOCB4_ISR *****************
 Defined at:
		line 124 in file "mcc_generated_files/pin_manager.c"
 Parameters:    Size  Location     Type
		None
 Auto vars:     Size  Location     Type
		None
 Return value:  Size  Location     Type
                  1    wreg      void 
 Registers used:
		wreg, status,2, status,0, pclath, tosl, cstack
 Tracked objects:
		On entry : 
		On exit  : 
		Unchanged: 
 Data sizes:     COMRAM   BANK0   BANK1   BANK2   BANK3   BANK4   BANK5   BANK6   BANK7   BANK8   BANK9  BANK10  BANK11  BANK12  BANK13  BANK14  BANK15
      Params:         0       0       0       0       0       0       0       0       0       0       0       0       0       0       0       0       0
      Locals:         0       0       0       0       0       0       0       0       0       0       0       0       0       0       0       0       0
      Temps:          0       0       0       0       0       0       0       0       0       0       0       0       0       0       0       0       0
      Totals:         0       0       0       0       0       0       0       0       0       0       0       0       0       0       0       0       0
Total ram usage:        0 bytes
 Hardware stack levels used:    1
 Hardware stack levels required when called:    1
 This function calls:
		Absolute function
		_DIO2_ISR_Lora
		_IOCB4_DefaultInterruptHandler
 This function is called by:
		_PIN_MANAGER_IOC
 This function uses a non-reentrant model


 *************** function _DIO2_ISR_Lora *****************
 Defined at:
		line 73 in file "mcc_generated_files/LoRaWAN/interrupt_manager_lora_addons.c"
 Parameters:    Size  Location     Type
		None
 Auto vars:     Size  Location     Type
		None
 Return value:  Size  Location     Type
                  1    wreg      void 
 Registers used:
		status,2, status,0
 Tracked objects:
		On entry : 
		On exit  : 
		Unchanged: 
 Data sizes:     COMRAM   BANK0   BANK1   BANK2   BANK3   BANK4   BANK5   BANK6   BANK7   BANK8   BANK9  BANK10  BANK11  BANK12  BANK13  BANK14  BANK15
      Params:         0       0       0       0       0       0       0       0       0       0       0       0       0       0       0       0       0
      Locals:         0       0       0       0       0       0       0       0       0       0       0       0       0       0       0       0       0
      Temps:          0       0       0       0       0       0       0       0       0       0       0       0       0       0       0       0       0
      Totals:         0       0       0       0       0       0       0       0       0       0       0       0       0       0       0       0       0
Total ram usage:        0 bytes
 Hardware stack levels used:    1
 This function calls:
		Nothing
 This function is called by:
		_DIO2_ISR_Lora_Init
		_IOCB4_ISR
 This function uses a non-reentrant model


 *************** function _IOCB4_DefaultInterruptHandler *****************
 Defined at:
		line 145 in file "mcc_generated_files/pin_manager.c"
 Parameters:    Size  Location     Type
		None
 Auto vars:     Size  Location     Type
		None
 Return value:  Size  Location     Type
                  1    wreg      void 
 Registers used:
		None
 Tracked objects:
		On entry : 
		On exit  : 
		Unchanged: 
 Data sizes:     COMRAM   BANK0   BANK1   BANK2   BANK3   BANK4   BANK5   BANK6   BANK7   BANK8   BANK9  BANK10  BANK11  BANK12  BANK13  BANK14  BANK15
      Params:         0       0       0       0       0       0       0       0       0       0       0       0       0       0       0       0       0
      Locals:         0       0       0       0       0       0       0       0       0       0       0       0       0       0       0       0       0
      Temps:          0       0       0       0       0       0       0       0       0       0       0       0       0       0       0       0       0
      Totals:         0       0       0       0       0       0       0       0       0       0       0       0       0       0       0       0       0
Total ram usage:        0 bytes
 Hardware stack levels used:    1
 This function calls:
		Nothing
 This function is called by:
		_PIN_MANAGER_Initialize
		_IOCB4_ISR
 This function uses a non-reentrant model


 *************** function _INT2_ISR *****************
 Defined at:
		line 59 in file "mcc_generated_files/ext_int.c"
 Parameters:    Size  Location     Type
		None
 Auto vars:     Size  Location     Type
		None
 Return value:  Size  Location     Type
                  1    wreg      void 
 Registers used:
		wreg, status,2, status,0, pclath, tosl, cstack
 Tracked objects:
		On entry : 
		On exit  : 
		Unchanged: 
 Data sizes:     COMRAM   BANK0   BANK1   BANK2   BANK3   BANK4   BANK5   BANK6   BANK7   BANK8   BANK9  BANK10  BANK11  BANK12  BANK13  BANK14  BANK15
      Params:         0       0       0       0       0       0       0       0       0       0       0       0       0       0       0       0       0
      Locals:         0       0       0       0       0       0       0       0       0       0       0       0       0       0       0       0       0
      Temps:          0       0       0       0       0       0       0       0       0       0       0       0       0       0       0       0       0
      Totals:         0       0       0       0       0       0       0       0       0       0       0       0       0       0       0       0       0
Total ram usage:        0 bytes
 Hardware stack levels used:    1
 Hardware stack levels required when called:    2
 This function calls:
		_INT2_CallBack
 This function is called by:
		_INTERRUPT_InterruptManager
 This function uses a non-reentrant model


 *************** function _INT2_CallBack *****************
 Defined at:
		line 68 in file "mcc_generated_files/ext_int.c"
 Parameters:    Size  Location     Type
		None
 Auto vars:     Size  Location     Type
		None
 Return value:  Size  Location     Type
                  1    wreg      void 
 Registers used:
		wreg, status,2, status,0, pclath, tosl, cstack
 Tracked objects:
		On entry : 
		On exit  : 
		Unchanged: 
 Data sizes:     COMRAM   BANK0   BANK1   BANK2   BANK3   BANK4   BANK5   BANK6   BANK7   BANK8   BANK9  BANK10  BANK11  BANK12  BANK13  BANK14  BANK15
      Params:         0       0       0       0       0       0       0       0       0       0       0       0       0       0       0       0       0
      Locals:         0       0       0       0       0       0       0       0       0       0       0       0       0       0       0       0       0
      Temps:          0       0       0       0       0       0       0       0       0       0       0       0       0       0       0       0       0
      Totals:         0       0       0       0       0       0       0       0       0       0       0       0       0       0       0       0       0
Total ram usage:        0 bytes
 Hardware stack levels used:    1
 Hardware stack levels required when called:    1
 This function calls:
		Absolute function
		_DIO1_ISR_Lora
		_INT2_DefaultInterruptHandler
 This function is called by:
		_INT2_ISR
 This function uses a non-reentrant model


 *************** function _DIO1_ISR_Lora *****************
 Defined at:
		line 68 in file "mcc_generated_files/LoRaWAN/interrupt_manager_lora_addons.c"
 Parameters:    Size  Location     Type
		None
 Auto vars:     Size  Location     Type
		None
 Return value:  Size  Location     Type
                  1    wreg      void 
 Registers used:
		status,2, status,0
 Tracked objects:
		On entry : 
		On exit  : 
		Unchanged: 
 Data sizes:     COMRAM   BANK0   BANK1   BANK2   BANK3   BANK4   BANK5   BANK6   BANK7   BANK8   BANK9  BANK10  BANK11  BANK12  BANK13  BANK14  BANK15
      Params:         0       0       0       0       0       0       0       0       0       0       0       0       0       0       0       0       0
      Locals:         0       0       0       0       0       0       0       0       0       0       0       0       0       0       0       0       0
      Temps:          0       0       0       0       0       0       0       0       0       0       0       0       0       0       0       0       0
      Totals:         0       0       0       0       0       0       0       0       0       0       0       0       0       0       0       0       0
Total ram usage:        0 bytes
 Hardware stack levels used:    1
 This function calls:
		Nothing
 This function is called by:
		_DIO1_ISR_Lora_Init
		_INT2_CallBack
 This function uses a non-reentrant model


 *************** function _INT2_DefaultInterruptHandler *****************
 Defined at:
		line 81 in file "mcc_generated_files/ext_int.c"
 Parameters:    Size  Location     Type
		None
 Auto vars:     Size  Location     Type
		None
 Return value:  Size  Location     Type
                  1    wreg      void 
 Registers used:
		None
 Tracked objects:
		On entry : 
		On exit  : 
		Unchanged: 
 Data sizes:     COMRAM   BANK0   BANK1   BANK2   BANK3   BANK4   BANK5   BANK6   BANK7   BANK8   BANK9  BANK10  BANK11  BANK12  BANK13  BANK14  BANK15
      Params:         0       0       0       0       0       0       0       0       0       0       0       0       0       0       0       0       0
      Locals:         0       0       0       0       0       0       0       0       0       0       0       0       0       0       0       0       0
      Temps:          0       0       0       0       0       0       0       0       0       0       0       0       0       0       0       0       0
      Totals:         0       0       0       0       0       0       0       0       0       0       0       0       0       0       0       0       0
Total ram usage:        0 bytes
 Hardware stack levels used:    1
 This function calls:
		Nothing
 This function is called by:
		_EXT_INT_Initialize
		_INT2_CallBack
 This function uses a non-reentrant model


 *************** function _INT1_ISR *****************
 Defined at:
		line 33 in file "mcc_generated_files/ext_int.c"
 Parameters:    Size  Location     Type
		None
 Auto vars:     Size  Location     Type
		None
 Return value:  Size  Location     Type
                  1    wreg      void 
 Registers used:
		wreg, status,2, status,0, pclath, tosl, cstack
 Tracked objects:
		On entry : 
		On exit  : 
		Unchanged: 
 Data sizes:     COMRAM   BANK0   BANK1   BANK2   BANK3   BANK4   BANK5   BANK6   BANK7   BANK8   BANK9  BANK10  BANK11  BANK12  BANK13  BANK14  BANK15
      Params:         0       0       0       0       0       0       0       0       0       0       0       0       0       0       0       0       0
      Locals:         0       0       0       0       0       0       0       0       0       0       0       0       0       0       0       0       0
      Temps:          0       0       0       0       0       0       0       0       0       0       0       0       0       0       0       0       0
      Totals:         0       0       0       0       0       0       0       0       0       0       0       0       0       0       0       0       0
Total ram usage:        0 bytes
 Hardware stack levels used:    1
 Hardware stack levels required when called:    2
 This function calls:
		_INT1_CallBack
 This function is called by:
		_INTERRUPT_InterruptManager
 This function uses a non-reentrant model


 *************** function _INT1_CallBack *****************
 Defined at:
		line 42 in file "mcc_generated_files/ext_int.c"
 Parameters:    Size  Location     Type
		None
 Auto vars:     Size  Location     Type
		None
 Return value:  Size  Location     Type
                  1    wreg      void 
 Registers used:
		wreg, status,2, status,0, pclath, tosl, cstack
 Tracked objects:
		On entry : 
		On exit  : 
		Unchanged: 
 Data sizes:     COMRAM   BANK0   BANK1   BANK2   BANK3   BANK4   BANK5   BANK6   BANK7   BANK8   BANK9  BANK10  BANK11  BANK12  BANK13  BANK14  BANK15
      Params:         0       0       0       0       0       0       0       0       0       0       0       0       0       0       0       0       0
      Locals:         0       0       0       0       0       0       0       0       0       0       0       0       0       0       0       0       0
      Temps:          0       0       0       0       0       0       0       0       0       0       0       0       0       0       0       0       0
      Totals:         0       0       0       0       0       0       0       0       0       0       0       0       0       0       0       0       0
Total ram usage:        0 bytes
 Hardware stack levels used:    1
 Hardware stack levels required when called:    1
 This function calls:
		Absolute function
		_DIO0_ISR_Lora
		_INT1_DefaultInterruptHandler
 This function is called by:
		_INT1_ISR
 This function uses a non-reentrant model


 *************** function _DIO0_ISR_Lora *****************
 Defined at:
		line 63 in file "mcc_generated_files/LoRaWAN/interrupt_manager_lora_addons.c"
 Parameters:    Size  Location     Type
		None
 Auto vars:     Size  Location     Type
		None
 Return value:  Size  Location     Type
                  1    wreg      void 
 Registers used:
		status,2, status,0
 Tracked objects:
		On entry : 
		On exit  : 
		Unchanged: 
 Data sizes:     COMRAM   BANK0   BANK1   BANK2   BANK3   BANK4   BANK5   BANK6   BANK7   BANK8   BANK9  BANK10  BANK11  BANK12  BANK13  BANK14  BANK15
      Params:         0       0       0       0       0       0       0       0       0       0       0       0       0       0       0       0       0
      Locals:         0       0       0       0       0       0       0       0       0       0       0       0       0       0       0       0       0
      Temps:          0       0       0       0       0       0       0       0       0       0       0       0       0       0       0       0       0
      Totals:         0       0       0       0       0       0       0       0       0       0       0       0       0       0       0       0       0
Total ram usage:        0 bytes
 Hardware stack levels used:    1
 This function calls:
		Nothing
 This function is called by:
		_DIO0_ISR_Lora_Init
		_INT1_CallBack
 This function uses a non-reentrant model


 *************** function _INT1_DefaultInterruptHandler *****************
 Defined at:
		line 55 in file "mcc_generated_files/ext_int.c"
 Parameters:    Size  Location     Type
		None
 Auto vars:     Size  Location     Type
		None
 Return value:  Size  Location     Type
                  1    wreg      void 
 Registers used:
		None
 Tracked objects:
		On entry : 
		On exit  : 
		Unchanged: 
 Data sizes:     COMRAM   BANK0   BANK1   BANK2   BANK3   BANK4   BANK5   BANK6   BANK7   BANK8   BANK9  BANK10  BANK11  BANK12  BANK13  BANK14  BANK15
      Params:         0       0       0       0       0       0       0       0       0       0       0       0       0       0       0       0       0
      Locals:         0       0       0       0       0       0       0       0       0       0       0       0       0       0       0       0       0
      Temps:          0       0       0       0       0       0       0       0       0       0       0       0       0       0       0       0       0
      Totals:         0       0       0       0       0       0       0       0       0       0       0       0       0       0       0       0       0
Total ram usage:        0 bytes
 Hardware stack levels used:    1
 This function calls:
		Nothing
 This function is called by:
		_EXT_INT_Initialize
		_INT1_CallBack
 This function uses a non-reentrant model



MODULE INFORMATION

Module		Function		Class		Link	Load	Size
mcc_generated_files/LoRaWAN/lorawan.c
		_UpdateReceiveWindow2Parameters		CODE           	8B48	0000	23
		_ExecuteRxTimingSetup		CODE           	877A	0000	41
		_ComputeMic    		CODE           	7932	0000	99
		_SetReceptionNotOkState		CODE           	746E	0000	127
		_PrepareJoinRequestFrame		CODE           	4992	0000	401
		_LORAWAN_ReceiveWindow2Callback		CODE           	666C	0000	217
		_LORAWAN_LinkCheckConfigure		CODE           	5246	0000	351
		_LORAWAN_SetApplicationSessionKey		CODE           	8622	0000	47
		_CountfOptsLength		CODE           	68EA	0000	203
		_AssembleEncryptionBlock		CODE           	6012	0000	245
		_UpdateCurrentDataRate		CODE           	8CDE	0000	11
		_UnconfirmedTransmissionCallback		CODE           	756A	0000	121
		_LORAWAN_SetNetworkSessionKey		CODE           	85F4	0000	47
		_MacExecuteCommands		CODE           	2F4E	0000	759
		_IncludeMacCommandsResponse		CODE           	19DE	0000	1123
		_LORAWAN_GetMaxPayloadSize		CODE           	7A58	0000	97
		_CheckMcastFlags		CODE           	73EC	0000	131
		_SetJoinFailState		CODE           	8506	0000	49
		_AckRetransmissionCallback		CODE           	5AFA	0000	287
		_PrepareSessionKeys		CODE           	6BDA	0000	173
		_UpdateMinMaxChDataRate		CODE           	5F18	0000	251
		_EncryptFRMPayload		CODE           	428A	0000	473
		_ResetParametersForUnconfirmedTransmission		CODE           	8B5E	0000	21
		_AutomaticReplyCallback		CODE           	881A	0000	39
		_ResetParametersForConfirmedTransmission		CODE           	8BAC	0000	19
		_FindSmallestDataRate		CODE           	64B0	0000	223
		_LORAWAN_SetDeviceAddress		CODE           	8AEA	0000	25
		_UpdateTxPower 		CODE           	8CD4	0000	11
		_CheckFlags    		CODE           	7B76	0000	95
		_ExtractMic    		CODE           	7C8A	0000	91
		_LORAWAN_ReceiveWindow1Callback		CODE           	6A6E	0000	185
		_LORAWAN_Send  		CODE           	6818	0000	211
		_LORAWAN_Join  		CODE           	6D2E	0000	165
		_ConfigureRadioRx		CODE           	8728	0000	43
		_UpdateReceiveDelays		CODE           	82CE	0000	67
		_ComputeSessionKeys		CODE           	72E2	0000	135
		_LORAWAN_LinkCheckCallback		CODE           	4CA4	0000	365
		_UpdateJoinSuccessState		CODE           	563E	0000	319
		_LORAWAN_EnterContinuousReceive		CODE           	74EC	0000	127
		_ExecuteLinkCheck		CODE           	84A4	0000	51
		_LORAWAN_Mainloop		CODE           	8390	0000	63
		_AssemblePacket		CODE           	1E40	0000	945
		_UpdateRetransmissionAckTimeoutState		CODE           	75E2	0000	115
		_Random        		CODE           	88A8	0000	35
		_LORAWAN_RxDone		CODE           	0086	0000	3239
		_UpdateJoinInProgress		CODE           	8A9E	0000	27

mcc_generated_files/LoRaWAN/lorawan.c estimated size: 11892

mcc_generated_files/LoRaWAN/interrupt_manager_lora_addons.c
		_INTERRUPT_GetDioStatus		CODE           	8B72	0000	21
		_DIO0_ISR_Lora 		CODE           	8D82	0000	7
		_DIO1_ISR_Lora 		CODE           	8D7C	0000	7
		_DIO2_ISR_Lora 		CODE           	8D76	0000	7

mcc_generated_files/LoRaWAN/interrupt_manager_lora_addons.c estimated size: 42

mcc_generated_files/LoRaWAN/lorawan_aes.c
		_AESEncodeLoRa 		CODE           	840A	0000	55

mcc_generated_files/LoRaWAN/lorawan_aes.c estimated size: 55

C:\Program Files (x86)\Microchip\xc8\v1.45\sources\common\doprnt.c
		_printf        		CODE           	84D6	0000	49

C:\Program Files (x86)\Microchip\xc8\v1.45\sources\common\doprnt.c estimated size: 49

C:\Program Files (x86)\Microchip\xc8\v1.45\sources\common\abdiv.c
		___abdiv       		CODE           	7866	0000	103

C:\Program Files (x86)\Microchip\xc8\v1.45\sources\common\abdiv.c estimated size: 103

mcc_generated_files/LoRaWAN/sw_timer.c
		_SwTimerStop   		CODE           	87F2	0000	41
		_SwTimerStart  		CODE           	6E76	0000	151
		_TMR_GetDeltaTime		CODE           	47FA	0000	409
		_SwTimerReadValue		CODE           	8350	0000	65
		_SwTimerIsRunning		CODE           	86FE	0000	43
		_SwTimerCreate 		CODE           	7032	0000	141
		_TMR_OverrideRemaining		CODE           	6F0C	0000	151
		_TMR_SwapTimer 		CODE           	7FD4	0000	75
		_SwTimerSetCallback		CODE           	8202	0000	69
		_SwTimerSetTimeout		CODE           	8246	0000	69
		_SwTimersInterrupt		CODE           	5C18	0000	259
		_SystemBlockingWaitMs		CODE           	8566	0000	49
		_SwTimersExecute		CODE           	62E6	0000	231
		_SystemTimerInit		CODE           	8D4C	0000	9

mcc_generated_files/LoRaWAN/sw_timer.c estimated size: 1762

mcc_generated_files/interrupt_manager.c
		_INTERRUPT_Initialize		CODE           	8D8C	0000	5
		_INTERRUPT_InterruptManager		CODE           	0008	0000	119

mcc_generated_files/interrupt_manager.c estimated size: 124

C:\Program Files (x86)\Microchip\xc8\v1.45\sources\common\Umul16.c
		___wmul        		CODE           	87A2	0000	41

C:\Program Files (x86)\Microchip\xc8\v1.45\sources\common\Umul16.c estimated size: 41

mcc_generated_files/pin_manager.c
		_IOCB4_DefaultInterruptHandler		CODE           	8DAC	0000	3
		_PIN_MANAGER_Initialize		CODE           	7DE8	0000	85
		_PIN_MANAGER_IOC		CODE           	8D42	0000	11
		_IOCB4_SetInterruptHandler		CODE           	8C98	0000	11
		_IOCB4_ISR     		CODE           	89CC	0000	33

mcc_generated_files/pin_manager.c estimated size: 143

C:\Program Files (x86)\Microchip\xc8\v1.45\sources\common\memcpy.c
		_memcpy        		CODE           	7AB8	0000	97

C:\Program Files (x86)\Microchip\xc8\v1.45\sources\common\memcpy.c estimated size: 97

C:\Program Files (x86)\Microchip\xc8\v1.45\sources\common\lwmod.c
		___lwmod       		CODE           	81BE	0000	69

C:\Program Files (x86)\Microchip\xc8\v1.45\sources\common\lwmod.c estimated size: 69

mcc_generated_files/adc.c
		_ADC_Initialize		CODE           	8B32	0000	23

mcc_generated_files/adc.c estimated size: 23

mcc_generated_files/LoRaWAN/lorawan_init.c
		_DIO0_ISR_Lora_Init		CODE           	8C00	0000	17
		_DIO1_ISR_Lora_Init		CODE           	8BF0	0000	17
		_DIO2_ISR_Lora_Init		CODE           	8BE0	0000	17
		_DIO3_ISR_Lora_Init		CODE           	8DA4	0000	3
		_DIO4_ISR_Lora_Init		CODE           	8DA2	0000	3
		_LORAWAN_PlatformInit		CODE           	8864	0000	35
		_DIO5_ISR_Lora_Init		CODE           	8DA0	0000	3

mcc_generated_files/LoRaWAN/lorawan_init.c estimated size: 95

mcc_generated_files/LoRaWAN/radio_driver_hal.c
		_HALDIO5PinValue		CODE           	8C82	0000	13
		_HALResetPinMakeInput		CODE           	8D9C	0000	5
		_HALResetPinMakeOutput		CODE           	8D98	0000	5
		_HALResetPinOutputValue		CODE           	8AB8	0000	27
		_HALSPISend    		CODE           	8C68	0000	15
		_HALSPICSDeassert		CODE           	8D90	0000	5
		_HALSPICSAssert		CODE           	8D94	0000	5

mcc_generated_files/LoRaWAN/radio_driver_hal.c estimated size: 75

C:\Program Files (x86)\Microchip\xc8\v1.45\sources\common\llmod.c
		___llmod       		CODE           	77FE	0000	105

C:\Program Files (x86)\Microchip\xc8\v1.45\sources\common\llmod.c estimated size: 105

mcc_generated_files/LoRaWAN/lorawan_aes_cmac.c
		_GenerateSubkey		CODE           	54F2	0000	333
		_AESCmac       		CODE           	21F0	0000	939
		_FillSubKey    		CODE           	7994	0000	99

mcc_generated_files/LoRaWAN/lorawan_aes_cmac.c estimated size: 1371

C:\Program Files (x86)\Microchip\xc8\v1.45\sources\common\Umul32.c
		___lmul        		CODE           	7CE4	0000	89

C:\Program Files (x86)\Microchip\xc8\v1.45\sources\common\Umul32.c estimated size: 89

C:\Program Files (x86)\Microchip\xc8\v1.45\sources\common\rand.c
		_srand         		CODE           	8C20	0000	17
		_rand          		CODE           	7BD4	0000	93

C:\Program Files (x86)\Microchip\xc8\v1.45\sources\common\rand.c estimated size: 110

mcc_generated_files/LoRaWAN/radio_driver_SX1276.c
		_RADIO_ReceiveStart		CODE           	3C58	0000	561
		_RADIO_Init    		CODE           	4630	0000	459
		_RADIO_SetSpreadingFactor		CODE           	8D10	0000	11
		_RADIO_WriteConfiguration		CODE           	14DE	0000	1281
		_RADIO_RxFSKTimeout		CODE           	83CE	0000	61
		_RADIO_WriteFSKBitRate		CODE           	7796	0000	105
		_RADIO_WriteMode		CODE           	5E1A	0000	255
		_RADIO_Reset   		CODE           	80F0	0000	71
		_RADIO_GetStatus		CODE           	8D6A	0000	7
		_RADIO_RxDone  		CODE           	63CC	0000	229
		_RADIO_WriteFSKFrequencyDeviation		CODE           	772C	0000	107
		_RADIO_GetPacketSnr		CODE           	8D64	0000	7
		_RADIO_SetModulation		CODE           	8D1A	0000	11
		_RADIO_RegisterWrite		CODE           	894C	0000	33
		_RADIO_ReadRandom		CODE           	6DD2	0000	165
		_RADIO_ReleaseData		CODE           	8D70	0000	7
		_RADIO_FSKPacketSent		CODE           	577C	0000	303
		_RADIO_RegisterRead		CODE           	87CA	0000	41
		_RADIO_SetBandwidth		CODE           	8D2E	0000	11
		_RADIO_ReceiveStop		CODE           	892C	0000	33
		_RADIO_DIO0    		CODE           	6FA2	0000	145
		_RADIO_DIO1    		CODE           	7F86	0000	79
		_RADIO_DIO2    		CODE           	7D3C	0000	87
		_RADIO_DIO3    		CODE           	8886	0000	35
		_RADIO_DIO4    		CODE           	8440	0000	51
		_RADIO_DIO5    		CODE           	8752	0000	41
		_RADIO_FHSSChangeChannel		CODE           	8310	0000	65
		_RADIO_TxDone  		CODE           	59D4	0000	295
		_RADIO_SetFrequencyHopPeriod		CODE           	8D24	0000	11
		_RADIO_FSKPayloadReady		CODE           	6B26	0000	181
		_RADIO_SetLoRaSyncWord		CODE           	8D38	0000	11
		_RADIO_SetIQInverted		CODE           	8CFC	0000	11
		_RADIO_SetFSKSyncWord		CODE           	8536	0000	49
		_RADIO_RxTimeout		CODE           	8650	0000	47
		_RADIO_WritePower		CODE           	6106	0000	241
		_RADIO_SetOutputPower		CODE           	8CF2	0000	11
		_RADIO_WatchdogTimeout		CODE           	8064	0000	71
		_RADIO_SetChannelFrequency		CODE           	70BE	0000	139
		_RADIO_Transmit		CODE           	3A20	0000	569
		_RADIO_UnhandledInterrupt		CODE           	8472	0000	51
		_RADIO_SetCRC  		CODE           	8D06	0000	11
		_RADIO_WriteFrequency		CODE           	61F6	0000	241

mcc_generated_files/LoRaWAN/radio_driver_SX1276.c estimated size: 6200

mcc_generated_files/ext_int.c
		_INT1_SetInterruptHandler		CODE           	8CAC	0000	11
		_EXT_INT_Initialize		CODE           	86AA	0000	43
		_INT2_SetInterruptHandler		CODE           	8CA2	0000	11
		_INT1_DefaultInterruptHandler		CODE           	8DB0	0000	3
		_INT1_CallBack 		CODE           	8A0C	0000	33
		_INT2_DefaultInterruptHandler		CODE           	8DAE	0000	3
		_INT2_CallBack 		CODE           	89EC	0000	33
		_INT1_ISR      		CODE           	8D5C	0000	9
		_INT2_ISR      		CODE           	8D54	0000	9

mcc_generated_files/ext_int.c estimated size: 155

mcc_generated_files/LoRaWAN/tmr_lora_addons.c
		_TMR_ISR_Lora_Init		CODE           	8BD0	0000	17
		_TMR_ISR_lora  		CODE           	7D92	0000	87

mcc_generated_files/LoRaWAN/tmr_lora_addons.c estimated size: 104

mcc_generated_files/tmr5.c
		_TMR5_HasOverflowOccured		CODE           	8C76	0000	13
		_TMR5_Initialize		CODE           	8A2C	0000	31

mcc_generated_files/tmr5.c estimated size: 44

shared
		_spreadingFactor		MEDIUMCONST    	FF77	0000	8
		_maxPayloadSize		MEDIUMCONST    	FF59	0000	9
		_DefaultChannels433		MEDIUMCONST    	FF8A	0000	43
		_FskSyncWordBuff		MEDIUMCONST    	FFDE	0000	4
		_rxWindowSize  		MEDIUMCONST    	FF61	0000	9
		i2_TMR_SwapTimer		CODE           	828A	0000	69
		i2_TMR1_ReadTimer		CODE           	89AC	0000	33
		_DefaultChannels868		MEDIUMCONST    	FFB4	0000	43
		_macEndDevCmdReplyLen		MEDIUMCONST    	FF69	0000	8
		__initialization		CODE           	69B4	0000	181
		_txPower433    		MEDIUMCONST    	0000	0000	0
		_txPower868    		MEDIUMCONST    	FF84	0000	7
		i2_TMR1_WriteTimer		CODE           	8A82	0000	29
		_rxWindowOffset		MEDIUMCONST    	FF51	0000	9
		_STable        		MEDIUMCONST    	FE49	0000	257
		_modulation    		MEDIUMCONST    	FF49	0000	9
		i2_SwTimersInterrupt		CODE           	5D1A	0000	257
		_bandwidth     		MEDIUMCONST    	FF70	0000	8
		i2_TMR_GetDeltaTime		CODE           	4E10	0000	365

shared estimated size: 1348

mcc_generated_files/eusart1.c
		_EUSART1_Initialize		CODE           	801E	0000	71
		_putch         		CODE           	8C30	0000	15
		_EUSART1_SetFramingErrorHandler		CODE           	8CC0	0000	11
		_EUSART1_SetOverrunErrorHandler		CODE           	8CB6	0000	11
		_EUSART1_SetErrorHandler		CODE           	8CCA	0000	11
		_EUSART1_Write 		CODE           	8C3E	0000	15

mcc_generated_files/eusart1.c estimated size: 134

mcc_generated_files/LoRaWAN/lorawan_eu.c
		_ExecuteNewChannel		CODE           	37B0	0000	625
		_ExecuteLinkAdr		CODE           	3244	0000	713
		_UpdateDataRange		CODE           	53A4	0000	335
		_UpdateDutyCycle		CODE           	817A	0000	69
		_ValidateChannelMaskCntl		CODE           	890C	0000	33
		_LORAWAN_RxTimeout		CODE           	259A	0000	869
		_ValidateChannelId		CODE           	8840	0000	37
		_InitDefault433Channels		CODE           	71D2	0000	139
		_DutyCycleCallback		CODE           	2C48	0000	775
		_InitDefault868Channels		CODE           	7148	0000	139
		_SelectChannelForTransmission		CODE           	76C0	0000	109
		_ValidateChannelMask		CODE           	7B18	0000	95
		_ValidateDataRate		CODE           	8B1A	0000	25
		_ValidateRxOffset		CODE           	8B02	0000	25
		_ValidateDataRange		CODE           	80AA	0000	71
		_SetCallbackSoftwareTimers		CODE           	658E	0000	223
		_StartReTxTimer		CODE           	4B22	0000	387
		_SearchAvailableChannel		CODE           	58AA	0000	299
		_EnableChannels		CODE           	8A66	0000	29
		_UpdateFrequency		CODE           	8136	0000	69
		_ValidateFrequency		CODE           	78CC	0000	103
		_EnableChannels1		CODE           	7654	0000	109
		_ExecuteRxParamSetupReq		CODE           	3E88	0000	533
		_UpdateDLSettings		CODE           	8A4A	0000	29
		_GetRx1Freq    		CODE           	8B9A	0000	19
		_ValidateTxPower		CODE           	86D4	0000	43
		_LORAWAN_Init  		CODE           	79F6	0000	99
		_ConfigureRadioTx		CODE           	7E90	0000	83
		_LORAWAN_Reset 		CODE           	4462	0000	463
		_ExecuteDutyCycle		CODE           	7E3C	0000	85
		_UpdateCfList  		CODE           	409C	0000	495
		_LORAWAN_SetChannelIdStatus		CODE           	7C30	0000	91
		_StopAllSoftwareTimers		CODE           	7EE2	0000	83
		_UpdateChannelIdStatus		CODE           	4F7C	0000	359
		_ConfigureRadio		CODE           	6C86	0000	169
		_LORAWAN_TxDone		CODE           	0D2C	0000	1971
		_ExecuteDevStatus		CODE           	8CE8	0000	11
		_CreateAllSoftwareTimers		CODE           	7F34	0000	83

mcc_generated_files/LoRaWAN/lorawan_eu.c estimated size: 9894

mcc_generated_files/mcc.c
		_OSCILLATOR_Initialize		CODE           	8C5A	0000	15
		_SYSTEM_Initialize		CODE           	85C6	0000	47

mcc_generated_files/mcc.c estimated size: 62

mcc_generated_files/tmr1.c
		_TMR1_Initialize		CODE           	867E	0000	45
		_TMR1_SetInterruptHandler		CODE           	8C8E	0000	11
		_TMR1_DefaultInterruptHandler		CODE           	8DAA	0000	3
		_TMR1_CallBack 		CODE           	898C	0000	33
		_TMR1_WriteTimer		CODE           	896C	0000	33
		_TMR1_ReadTimer		CODE           	88CA	0000	35
		_TMR1_ISR      		CODE           	8B86	0000	21

mcc_generated_files/tmr1.c estimated size: 181

C:\Program Files (x86)\Microchip\xc8\v1.45\sources\common\awdiv.c
		___awdiv       		CODE           	725C	0000	135

C:\Program Files (x86)\Microchip\xc8\v1.45\sources\common\awdiv.c estimated size: 135

mcc_generated_files/LoRaWAN/AES.c
		_AESEncode     		CODE           	28FE	0000	843
		_EncKeySchedule		CODE           	350C	0000	677
		_EncodeShiftRow		CODE           	50E2	0000	357

mcc_generated_files/LoRaWAN/AES.c estimated size: 1877

C:\Program Files (x86)\Microchip\xc8\v1.45\sources\common\lldiv.c
		___lldiv       		CODE           	7368	0000	133

C:\Program Files (x86)\Microchip\xc8\v1.45\sources\common\lldiv.c estimated size: 133

mcc_generated_files/spi2.c
		_SPI2_Exchange8bit		CODE           	8BBE	0000	19
		_SPI2_Initialize		CODE           	8C4C	0000	15

mcc_generated_files/spi2.c estimated size: 34

mcc_generated_files/ccp5.c
		_CCP5_Initialize		CODE           	8C10	0000	17

mcc_generated_files/ccp5.c estimated size: 17

main.c
		_RxData        		CODE           	8DA8	0000	3
		_main          		CODE           	6744	0000	213
		_RxJoinResponse		CODE           	8DA6	0000	3

main.c estimated size: 219

C:\Program Files (x86)\Microchip\xc8\v1.45\sources\common\memset.c
		_memset        		CODE           	8596	0000	49

C:\Program Files (x86)\Microchip\xc8\v1.45\sources\common\memset.c estimated size: 49

